
a.out:     file format elf64-powerpcle


Disassembly of section .init:

00000000100005e0 <00000024.plt_call.__gmon_start__>:
    100005e0:	18 00 41 f8 	std     r2,24(r1)
    100005e4:	40 81 82 e9 	ld      r12,-32448(r2)
    100005e8:	a6 03 89 7d 	mtctr   r12
    100005ec:	20 04 80 4e 	bctr
	...

0000000010000600 <_init>:
    10000600:	02 10 40 3c 	lis     r2,4098
    10000604:	00 7f 42 38 	addi    r2,r2,32512
    10000608:	a6 02 08 7c 	mflr    r0
    1000060c:	10 00 01 f8 	std     r0,16(r1)
    10000610:	a1 ff 21 f8 	stdu    r1,-96(r1)
    10000614:	00 00 00 60 	nop
    10000618:	08 80 02 e8 	ld      r0,-32760(r2)
    1000061c:	00 00 a0 2f 	cmpdi   cr7,r0,0
    10000620:	0c 00 fe 41 	beq+    cr7,1000062c <_init+0x2c>
    10000624:	bd ff ff 4b 	bl      100005e0 <00000024.plt_call.__gmon_start__>
    10000628:	18 00 41 e8 	ld      r2,24(r1)
    1000062c:	60 00 21 38 	addi    r1,r1,96
    10000630:	10 00 01 e8 	ld      r0,16(r1)
    10000634:	a6 03 08 7c 	mtlr    r0
    10000638:	20 00 80 4e 	blr

Disassembly of section .text:

0000000010000640 <00000036.plt_call.__libc_start_main@@GLIBC_2.17>:
    10000640:	18 00 41 f8 	std     r2,24(r1)
    10000644:	28 81 82 e9 	ld      r12,-32472(r2)
    10000648:	a6 03 89 7d 	mtctr   r12
    1000064c:	20 04 80 4e 	bctr
	...

0000000010000660 <00000036.plt_call.puts@@GLIBC_2.17>:
    10000660:	18 00 41 f8 	std     r2,24(r1)
    10000664:	48 81 82 e9 	ld      r12,-32440(r2)
    10000668:	a6 03 89 7d 	mtctr   r12
    1000066c:	20 04 80 4e 	bctr
	...

0000000010000680 <00000036.plt_call.calloc@@GLIBC_2.17>:
    10000680:	18 00 41 f8 	std     r2,24(r1)
    10000684:	38 81 82 e9 	ld      r12,-32456(r2)
    10000688:	a6 03 89 7d 	mtctr   r12
    1000068c:	20 04 80 4e 	bctr
	...

00000000100006a0 <00000036.plt_call.__isoc99_scanf@@GLIBC_2.17>:
    100006a0:	18 00 41 f8 	std     r2,24(r1)
    100006a4:	58 81 82 e9 	ld      r12,-32424(r2)
    100006a8:	a6 03 89 7d 	mtctr   r12
    100006ac:	20 04 80 4e 	bctr
	...

00000000100006c0 <00000036.plt_call.printf@@GLIBC_2.17>:
    100006c0:	18 00 41 f8 	std     r2,24(r1)
    100006c4:	60 81 82 e9 	ld      r12,-32416(r2)
    100006c8:	a6 03 89 7d 	mtctr   r12
    100006cc:	20 04 80 4e 	bctr
	...

00000000100006e0 <00000036.plt_call.free@@GLIBC_2.17>:
    100006e0:	18 00 41 f8 	std     r2,24(r1)
    100006e4:	50 81 82 e9 	ld      r12,-32432(r2)
    100006e8:	a6 03 89 7d 	mtctr   r12
    100006ec:	20 04 80 4e 	bctr
	...

0000000010000700 <00000036.plt_call.memmove@@GLIBC_2.17>:
    10000700:	18 00 41 f8 	std     r2,24(r1)
    10000704:	18 81 82 e9 	ld      r12,-32488(r2)
    10000708:	a6 03 89 7d 	mtctr   r12
    1000070c:	20 04 80 4e 	bctr
	...

0000000010000720 <00000036.plt_call.memset@@GLIBC_2.17>:
    10000720:	18 00 41 f8 	std     r2,24(r1)
    10000724:	30 81 82 e9 	ld      r12,-32464(r2)
    10000728:	a6 03 89 7d 	mtctr   r12
    1000072c:	20 04 80 4e 	bctr
	...

0000000010000740 <00000036.plt_call.memcpy@@GLIBC_2.17>:
    10000740:	18 00 41 f8 	std     r2,24(r1)
    10000744:	10 81 82 e9 	ld      r12,-32496(r2)
    10000748:	a6 03 89 7d 	mtctr   r12
    1000074c:	20 04 80 4e 	bctr
	...

0000000010000760 <00000036.plt_call.malloc@@GLIBC_2.17>:
    10000760:	18 00 41 f8 	std     r2,24(r1)
    10000764:	20 81 82 e9 	ld      r12,-32480(r2)
    10000768:	a6 03 89 7d 	mtctr   r12
    1000076c:	20 04 80 4e 	bctr
	...

0000000010000780 <main>:
    10000780:	02 10 40 3c 	lis     r2,4098
    10000784:	00 7f 42 38 	addi    r2,r2,32512
    10000788:	a6 02 08 7c 	mflr    r0
    1000078c:	c0 ff 01 fb 	std     r24,-64(r1)
    10000790:	c8 ff 21 fb 	std     r25,-56(r1)
    10000794:	fe ff 62 3c 	addis   r3,r2,-2
    10000798:	d0 ff 41 fb 	std     r26,-48(r1)
    1000079c:	d8 ff 61 fb 	std     r27,-40(r1)
    100007a0:	88 b0 63 38 	addi    r3,r3,-20344
    100007a4:	e8 ff a1 fb 	std     r29,-24(r1)
    100007a8:	f0 ff c1 fb 	std     r30,-16(r1)
    100007ac:	f8 ff e1 fb 	std     r31,-8(r1)
    100007b0:	10 00 01 f8 	std     r0,16(r1)
    100007b4:	41 ff 21 f8 	stdu    r1,-192(r1)
    100007b8:	60 00 a1 38 	addi    r5,r1,96
    100007bc:	64 00 81 38 	addi    r4,r1,100
    100007c0:	e1 fe ff 4b 	bl      100006a0 <00000036.plt_call.__isoc99_scanf@@GLIBC_2.17>
    100007c4:	18 00 41 e8 	ld      r2,24(r1)
    100007c8:	66 00 61 e8 	lwa     r3,100(r1)
    100007cc:	60 00 21 81 	lwz     r9,96(r1)
    100007d0:	01 00 29 39 	addi    r9,r9,1
    100007d4:	b4 07 24 7d 	extsw   r4,r9
    100007d8:	b1 03 00 48 	bl      10000b88 <make_matrix+0x8>
    100007dc:	78 1b 7b 7c 	mr      r27,r3
    100007e0:	66 00 61 e8 	lwa     r3,100(r1)
    100007e4:	55 04 00 48 	bl      10000c38 <make_vector+0x8>
    100007e8:	60 00 21 81 	lwz     r9,96(r1)
    100007ec:	78 1b 7a 7c 	mr      r26,r3
    100007f0:	01 00 29 39 	addi    r9,r9,1
    100007f4:	b4 07 23 7d 	extsw   r3,r9
    100007f8:	41 04 00 48 	bl      10000c38 <make_vector+0x8>
    100007fc:	78 1b 78 7c 	mr      r24,r3
    10000800:	62 00 61 e8 	lwa     r3,96(r1)
    10000804:	35 04 00 48 	bl      10000c38 <make_vector+0x8>
    10000808:	62 00 81 e8 	lwa     r4,96(r1)
    1000080c:	78 1b 79 7c 	mr      r25,r3
    10000810:	00 00 04 2c 	cmpwi   r4,0
    10000814:	44 00 81 40 	ble     10000858 <main+0xd8>
    10000818:	fe ff c2 3f 	addis   r30,r2,-2
    1000081c:	78 1b 7f 7c 	mr      r31,r3
    10000820:	00 00 a0 3b 	li      r29,0
    10000824:	90 b0 de 3b 	addi    r30,r30,-20336
    10000828:	00 00 00 60 	nop
    1000082c:	00 00 42 60 	ori     r2,r2,0
    10000830:	78 fb e4 7f 	mr      r4,r31
    10000834:	78 f3 c3 7f 	mr      r3,r30
    10000838:	69 fe ff 4b 	bl      100006a0 <00000036.plt_call.__isoc99_scanf@@GLIBC_2.17>
    1000083c:	18 00 41 e8 	ld      r2,24(r1)
    10000840:	62 00 81 e8 	lwa     r4,96(r1)
    10000844:	01 00 5d 39 	addi    r10,r29,1
    10000848:	08 00 ff 3b 	addi    r31,r31,8
    1000084c:	b4 07 5d 7d 	extsw   r29,r10
    10000850:	00 50 04 7c 	cmpw    r4,r10
    10000854:	dc ff 81 41 	bgt     10000830 <main+0xb0>
    10000858:	66 00 61 e8 	lwa     r3,100(r1)
    1000085c:	00 00 03 2c 	cmpwi   r3,0
    10000860:	c0 00 81 40 	ble     10000920 <main+0x1a0>
    10000864:	fe ff c2 3f 	addis   r30,r2,-2
    10000868:	a0 00 81 fb 	std     r28,160(r1)
    1000086c:	78 db 7d 7f 	mr      r29,r27
    10000870:	00 00 80 3b 	li      r28,0
    10000874:	90 b0 de 3b 	addi    r30,r30,-20336
    10000878:	00 00 00 60 	nop
    1000087c:	00 00 42 60 	ori     r2,r2,0
    10000880:	00 00 04 2c 	cmpwi   r4,0
    10000884:	00 00 e0 3b 	li      r31,0
    10000888:	34 00 81 40 	ble     100008bc <main+0x13c>
    1000088c:	00 00 42 60 	ori     r2,r2,0
    10000890:	00 00 9d e8 	ld      r4,0(r29)
    10000894:	24 1f e9 7b 	rldicr  r9,r31,3,60
    10000898:	78 f3 c3 7f 	mr      r3,r30
    1000089c:	01 00 ff 3b 	addi    r31,r31,1
    100008a0:	14 4a 84 7c 	add     r4,r4,r9
    100008a4:	fd fd ff 4b 	bl      100006a0 <00000036.plt_call.__isoc99_scanf@@GLIBC_2.17>
    100008a8:	18 00 41 e8 	ld      r2,24(r1)
    100008ac:	62 00 81 e8 	lwa     r4,96(r1)
    100008b0:	00 f8 04 7c 	cmpw    r4,r31
    100008b4:	dc ff 81 41 	bgt     10000890 <main+0x110>
    100008b8:	66 00 61 e8 	lwa     r3,100(r1)
    100008bc:	01 00 5c 39 	addi    r10,r28,1
    100008c0:	00 18 0a 7c 	cmpw    r10,r3
    100008c4:	08 00 bd 3b 	addi    r29,r29,8
    100008c8:	b4 07 5c 7d 	extsw   r28,r10
    100008cc:	b4 ff 80 41 	blt     10000880 <main+0x100>
    100008d0:	00 00 03 2c 	cmpwi   r3,0
    100008d4:	0c 01 81 40 	ble     100009e0 <main+0x260>
    100008d8:	fe ff c2 3f 	addis   r30,r2,-2
    100008dc:	78 d3 5f 7f 	mr      r31,r26
    100008e0:	00 00 a0 3b 	li      r29,0
    100008e4:	90 b0 de 3b 	addi    r30,r30,-20336
    100008e8:	00 00 00 60 	nop
    100008ec:	00 00 42 60 	ori     r2,r2,0
    100008f0:	78 fb e4 7f 	mr      r4,r31
    100008f4:	78 f3 c3 7f 	mr      r3,r30
    100008f8:	a9 fd ff 4b 	bl      100006a0 <00000036.plt_call.__isoc99_scanf@@GLIBC_2.17>
    100008fc:	18 00 41 e8 	ld      r2,24(r1)
    10000900:	66 00 61 e8 	lwa     r3,100(r1)
    10000904:	01 00 3d 39 	addi    r9,r29,1
    10000908:	08 00 ff 3b 	addi    r31,r31,8
    1000090c:	b4 07 3d 7d 	extsw   r29,r9
    10000910:	00 48 03 7c 	cmpw    r3,r9
    10000914:	dc ff 81 41 	bgt     100008f0 <main+0x170>
    10000918:	62 00 81 e8 	lwa     r4,96(r1)
    1000091c:	a0 00 81 eb 	ld      r28,160(r1)
    10000920:	78 c3 08 7f 	mr      r8,r24
    10000924:	78 cb 27 7f 	mr      r7,r25
    10000928:	78 d3 46 7f 	mr      r6,r26
    1000092c:	78 db 65 7f 	mr      r5,r27
    10000930:	f8 ff db 3b 	addi    r30,r27,-8
    10000934:	55 21 00 48 	bl      10002a88 <intopt+0x8>
    10000938:	fe ff 62 3c 	addis   r3,r2,-2
    1000093c:	00 00 e0 3b 	li      r31,0
    10000940:	98 b0 63 38 	addi    r3,r3,-20328
    10000944:	66 00 24 7c 	mfvsrd  r4,vs1
    10000948:	70 00 21 d8 	stfd    f1,112(r1)
    1000094c:	75 fd ff 4b 	bl      100006c0 <00000036.plt_call.printf@@GLIBC_2.17>
    10000950:	18 00 41 e8 	ld      r2,24(r1)
    10000954:	64 00 21 81 	lwz     r9,100(r1)
    10000958:	00 00 09 2c 	cmpwi   r9,0
    1000095c:	24 00 81 40 	ble     10000980 <main+0x200>
    10000960:	09 00 7e e8 	ldu     r3,8(r30)
    10000964:	7d fd ff 4b 	bl      100006e0 <00000036.plt_call.free@@GLIBC_2.17>
    10000968:	18 00 41 e8 	ld      r2,24(r1)
    1000096c:	64 00 21 81 	lwz     r9,100(r1)
    10000970:	01 00 5f 39 	addi    r10,r31,1
    10000974:	b4 07 5f 7d 	extsw   r31,r10
    10000978:	00 50 09 7c 	cmpw    r9,r10
    1000097c:	e4 ff 81 41 	bgt     10000960 <main+0x1e0>
    10000980:	78 db 63 7f 	mr      r3,r27
    10000984:	5d fd ff 4b 	bl      100006e0 <00000036.plt_call.free@@GLIBC_2.17>
    10000988:	18 00 41 e8 	ld      r2,24(r1)
    1000098c:	78 d3 43 7f 	mr      r3,r26
    10000990:	51 fd ff 4b 	bl      100006e0 <00000036.plt_call.free@@GLIBC_2.17>
    10000994:	18 00 41 e8 	ld      r2,24(r1)
    10000998:	78 cb 23 7f 	mr      r3,r25
    1000099c:	45 fd ff 4b 	bl      100006e0 <00000036.plt_call.free@@GLIBC_2.17>
    100009a0:	18 00 41 e8 	ld      r2,24(r1)
    100009a4:	78 c3 03 7f 	mr      r3,r24
    100009a8:	39 fd ff 4b 	bl      100006e0 <00000036.plt_call.free@@GLIBC_2.17>
    100009ac:	18 00 41 e8 	ld      r2,24(r1)
    100009b0:	c0 00 21 38 	addi    r1,r1,192
    100009b4:	00 00 60 38 	li      r3,0
    100009b8:	10 00 01 e8 	ld      r0,16(r1)
    100009bc:	c0 ff 01 eb 	ld      r24,-64(r1)
    100009c0:	c8 ff 21 eb 	ld      r25,-56(r1)
    100009c4:	d0 ff 41 eb 	ld      r26,-48(r1)
    100009c8:	d8 ff 61 eb 	ld      r27,-40(r1)
    100009cc:	e8 ff a1 eb 	ld      r29,-24(r1)
    100009d0:	f0 ff c1 eb 	ld      r30,-16(r1)
    100009d4:	f8 ff e1 eb 	ld      r31,-8(r1)
    100009d8:	a6 03 08 7c 	mtlr    r0
    100009dc:	20 00 80 4e 	blr
    100009e0:	a0 00 81 eb 	ld      r28,160(r1)
    100009e4:	3c ff ff 4b 	b       10000920 <main+0x1a0>
    100009e8:	00 00 00 00 	.long 0x0
    100009ec:	00 00 00 01 	.long 0x1000000
    100009f0:	80 08 00 00 	.long 0x880

00000000100009f4 <_start>:
    100009f4:	02 10 40 3c 	lis     r2,4098
    100009f8:	00 7f 42 38 	addi    r2,r2,32512
    100009fc:	78 0b 29 7c 	mr      r9,r1
    10000a00:	e4 06 21 78 	rldicr  r1,r1,0,59
    10000a04:	00 00 00 38 	li      r0,0
    10000a08:	81 ff 21 f8 	stdu    r1,-128(r1)
    10000a0c:	a6 03 08 7c 	mtlr    r0
    10000a10:	00 00 01 f8 	std     r0,0(r1)
    10000a14:	10 80 02 e9 	ld      r8,-32752(r2)
    10000a18:	28 fc ff 4b 	b       10000640 <00000036.plt_call.__libc_start_main@@GLIBC_2.17>
    10000a1c:	00 00 00 60 	nop
	...
    10000a28:	40 20 0c 00 	.long 0xc2040
    10000a2c:	2c 00 00 00 	.long 0x2c
    10000a30:	06 00 5f 73 	andi.   r31,r26,6
    10000a34:	74 61 72 74 	andis.  r18,r3,24948
    10000a38:	00 00 00 60 	nop
    10000a3c:	00 00 00 60 	nop

0000000010000a40 <deregister_tm_clones>:
    10000a40:	02 10 40 3c 	lis     r2,4098
    10000a44:	00 7f 42 38 	addi    r2,r2,32512
    10000a48:	00 00 00 60 	nop
    10000a4c:	00 00 00 60 	nop
    10000a50:	78 81 62 38 	addi    r3,r2,-32392
    10000a54:	78 81 22 39 	addi    r9,r2,-32392
    10000a58:	00 18 29 7c 	cmpd    r9,r3
    10000a5c:	20 00 82 4d 	beqlr   
    10000a60:	00 00 00 60 	nop
    10000a64:	18 80 82 e9 	ld      r12,-32744(r2)
    10000a68:	00 00 2c 2c 	cmpdi   r12,0
    10000a6c:	20 00 82 4d 	beqlr   
    10000a70:	a6 02 08 7c 	mflr    r0
    10000a74:	a6 03 89 7d 	mtctr   r12
    10000a78:	10 00 01 f8 	std     r0,16(r1)
    10000a7c:	e1 ff 21 f8 	stdu    r1,-32(r1)
    10000a80:	18 00 41 f8 	std     r2,24(r1)
    10000a84:	21 04 80 4e 	bctrl
    10000a88:	18 00 41 e8 	ld      r2,24(r1)
    10000a8c:	20 00 21 38 	addi    r1,r1,32
    10000a90:	10 00 01 e8 	ld      r0,16(r1)
    10000a94:	a6 03 08 7c 	mtlr    r0
    10000a98:	20 00 80 4e 	blr
    10000a9c:	00 00 42 60 	ori     r2,r2,0

0000000010000aa0 <register_tm_clones>:
    10000aa0:	02 10 40 3c 	lis     r2,4098
    10000aa4:	00 7f 42 38 	addi    r2,r2,32512
    10000aa8:	00 00 00 60 	nop
    10000aac:	00 00 00 60 	nop
    10000ab0:	78 81 62 38 	addi    r3,r2,-32392
    10000ab4:	78 81 82 38 	addi    r4,r2,-32392
    10000ab8:	50 20 83 7c 	subf    r4,r3,r4
    10000abc:	74 1e 84 7c 	sradi   r4,r4,3
    10000ac0:	74 0e 84 7c 	sradi   r4,r4,1
    10000ac4:	95 01 84 7c 	addze.  r4,r4
    10000ac8:	20 00 82 4d 	beqlr   
    10000acc:	00 00 00 60 	nop
    10000ad0:	20 80 82 e9 	ld      r12,-32736(r2)
    10000ad4:	00 00 2c 2c 	cmpdi   r12,0
    10000ad8:	20 00 82 4d 	beqlr   
    10000adc:	a6 02 08 7c 	mflr    r0
    10000ae0:	a6 03 89 7d 	mtctr   r12
    10000ae4:	10 00 01 f8 	std     r0,16(r1)
    10000ae8:	e1 ff 21 f8 	stdu    r1,-32(r1)
    10000aec:	18 00 41 f8 	std     r2,24(r1)
    10000af0:	21 04 80 4e 	bctrl
    10000af4:	18 00 41 e8 	ld      r2,24(r1)
    10000af8:	20 00 21 38 	addi    r1,r1,32
    10000afc:	10 00 01 e8 	ld      r0,16(r1)
    10000b00:	a6 03 08 7c 	mtlr    r0
    10000b04:	20 00 80 4e 	blr
    10000b08:	00 00 00 60 	nop
    10000b0c:	00 00 42 60 	ori     r2,r2,0

0000000010000b10 <__do_global_dtors_aux>:
    10000b10:	02 10 40 3c 	lis     r2,4098
    10000b14:	00 7f 42 38 	addi    r2,r2,32512
    10000b18:	f8 ff e1 fb 	std     r31,-8(r1)
    10000b1c:	00 00 00 60 	nop
    10000b20:	d1 ff 21 f8 	stdu    r1,-48(r1)
    10000b24:	78 81 22 89 	lbz     r9,-32392(r2)
    10000b28:	00 00 09 2c 	cmpwi   r9,0
    10000b2c:	20 00 82 40 	bne     10000b4c <__do_global_dtors_aux+0x3c>
    10000b30:	a6 02 08 7c 	mflr    r0
    10000b34:	40 00 01 f8 	std     r0,64(r1)
    10000b38:	11 ff ff 4b 	bl      10000a48 <deregister_tm_clones+0x8>
    10000b3c:	40 00 01 e8 	ld      r0,64(r1)
    10000b40:	01 00 20 39 	li      r9,1
    10000b44:	78 81 22 99 	stb     r9,-32392(r2)
    10000b48:	a6 03 08 7c 	mtlr    r0
    10000b4c:	30 00 21 38 	addi    r1,r1,48
    10000b50:	f8 ff e1 eb 	ld      r31,-8(r1)
    10000b54:	20 00 80 4e 	blr
    10000b58:	00 00 00 60 	nop
    10000b5c:	00 00 42 60 	ori     r2,r2,0

0000000010000b60 <frame_dummy>:
    10000b60:	02 10 40 3c 	lis     r2,4098
    10000b64:	00 7f 42 38 	addi    r2,r2,32512
    10000b68:	40 ff ff 4b 	b       10000aa8 <register_tm_clones+0x8>
    10000b6c:	00 00 00 60 	nop
    10000b70:	00 00 00 60 	nop
    10000b74:	00 00 00 60 	nop
    10000b78:	00 00 00 60 	nop
    10000b7c:	00 00 00 60 	nop

0000000010000b80 <make_matrix>:
    10000b80:	02 10 40 3c 	lis     r2,4098
    10000b84:	00 7f 42 38 	addi    r2,r2,32512
    10000b88:	a6 02 08 7c 	mflr    r0
    10000b8c:	e0 ff 81 fb 	std     r28,-32(r1)
    10000b90:	e8 ff a1 fb 	std     r29,-24(r1)
    10000b94:	78 23 9d 7c 	mr      r29,r4
    10000b98:	f0 ff c1 fb 	std     r30,-16(r1)
    10000b9c:	08 00 80 38 	li      r4,8
    10000ba0:	78 1b 7e 7c 	mr      r30,r3
    10000ba4:	10 00 01 f8 	std     r0,16(r1)
    10000ba8:	c1 ff 21 f8 	stdu    r1,-64(r1)
    10000bac:	d5 fa ff 4b 	bl      10000680 <00000036.plt_call.calloc@@GLIBC_2.17>
    10000bb0:	18 00 41 e8 	ld      r2,24(r1)
    10000bb4:	00 00 1e 2c 	cmpwi   r30,0
    10000bb8:	78 1b 7c 7c 	mr      r28,r3
    10000bbc:	44 00 81 40 	ble     10000c00 <make_matrix+0x80>
    10000bc0:	ff ff de 3b 	addi    r30,r30,-1
    10000bc4:	38 00 e1 fb 	std     r31,56(r1)
    10000bc8:	f8 ff e3 3b 	addi    r31,r3,-8
    10000bcc:	48 1f de 7b 	rldic   r30,r30,3,29
    10000bd0:	14 f2 c3 7f 	add     r30,r3,r30
    10000bd4:	00 00 00 60 	nop
    10000bd8:	00 00 00 60 	nop
    10000bdc:	00 00 42 60 	ori     r2,r2,0
    10000be0:	08 00 80 38 	li      r4,8
    10000be4:	78 eb a3 7f 	mr      r3,r29
    10000be8:	99 fa ff 4b 	bl      10000680 <00000036.plt_call.calloc@@GLIBC_2.17>
    10000bec:	18 00 41 e8 	ld      r2,24(r1)
    10000bf0:	09 00 7f f8 	stdu    r3,8(r31)
    10000bf4:	40 f0 3f 7c 	cmpld   r31,r30
    10000bf8:	e8 ff 82 40 	bne     10000be0 <make_matrix+0x60>
    10000bfc:	38 00 e1 eb 	ld      r31,56(r1)
    10000c00:	40 00 21 38 	addi    r1,r1,64
    10000c04:	78 e3 83 7f 	mr      r3,r28
    10000c08:	10 00 01 e8 	ld      r0,16(r1)
    10000c0c:	e0 ff 81 eb 	ld      r28,-32(r1)
    10000c10:	e8 ff a1 eb 	ld      r29,-24(r1)
    10000c14:	f0 ff c1 eb 	ld      r30,-16(r1)
    10000c18:	a6 03 08 7c 	mtlr    r0
    10000c1c:	20 00 80 4e 	blr
    10000c20:	00 00 00 00 	.long 0x0
    10000c24:	00 00 00 01 	.long 0x1000000
    10000c28:	80 04 00 00 	.long 0x480
    10000c2c:	00 00 42 60 	ori     r2,r2,0

0000000010000c30 <make_vector>:
    10000c30:	02 10 40 3c 	lis     r2,4098
    10000c34:	00 7f 42 38 	addi    r2,r2,32512
    10000c38:	a6 02 08 7c 	mflr    r0
    10000c3c:	08 00 80 38 	li      r4,8
    10000c40:	10 00 01 f8 	std     r0,16(r1)
    10000c44:	e1 ff 21 f8 	stdu    r1,-32(r1)
    10000c48:	39 fa ff 4b 	bl      10000680 <00000036.plt_call.calloc@@GLIBC_2.17>
    10000c4c:	18 00 41 e8 	ld      r2,24(r1)
    10000c50:	20 00 21 38 	addi    r1,r1,32
    10000c54:	10 00 01 e8 	ld      r0,16(r1)
    10000c58:	a6 03 08 7c 	mtlr    r0
    10000c5c:	20 00 80 4e 	blr
    10000c60:	00 00 00 00 	.long 0x0
    10000c64:	00 00 00 01 	.long 0x1000000
    10000c68:	80 00 00 00 	.long 0x80
    10000c6c:	00 00 42 60 	ori     r2,r2,0

0000000010000c70 <select_nonbasic>:
    10000c70:	02 10 40 3c 	lis     r2,4098
    10000c74:	00 7f 42 38 	addi    r2,r2,32512
    10000c78:	06 00 43 e9 	lwa     r10,4(r3)
    10000c7c:	00 00 0a 2c 	cmpwi   r10,0
    10000c80:	5c 00 81 40 	ble     10000cdc <select_nonbasic+0x6c>
    10000c84:	ff ff 4a 39 	addi    r10,r10,-1
    10000c88:	fe ff 22 3d 	addis   r9,r2,-2
    10000c8c:	28 00 03 e9 	ld      r8,40(r3)
    10000c90:	20 00 4a 79 	clrldi  r10,r10,32
    10000c94:	01 00 4a 39 	addi    r10,r10,1
    10000c98:	a8 b0 89 c9 	lfd     f12,-20312(r9)
    10000c9c:	00 00 20 39 	li      r9,0
    10000ca0:	a6 03 49 7d 	mtctr   r10
    10000ca4:	1c 00 00 48 	b       10000cc0 <select_nonbasic+0x50>
    10000ca8:	00 00 00 60 	nop
    10000cac:	00 00 00 60 	nop
    10000cb0:	00 00 00 60 	nop
    10000cb4:	00 00 00 60 	nop
    10000cb8:	00 00 00 60 	nop
    10000cbc:	00 00 42 60 	ori     r2,r2,0
    10000cc0:	24 1f 2a 79 	rldicr  r10,r9,3,60
    10000cc4:	b4 07 23 7d 	extsw   r3,r9
    10000cc8:	01 00 29 39 	addi    r9,r9,1
    10000ccc:	ae 54 08 7c 	lfdx    f0,r8,r10
    10000cd0:	00 60 00 fc 	fcmpu   cr0,f0,f12
    10000cd4:	20 00 81 4d 	bgtlr   
    10000cd8:	e8 ff 00 42 	bdnz    10000cc0 <select_nonbasic+0x50>
    10000cdc:	ff ff 60 38 	li      r3,-1
    10000ce0:	20 00 80 4e 	blr
	...

0000000010000cf0 <init>:
    10000cf0:	02 10 40 3c 	lis     r2,4098
    10000cf4:	00 7f 42 38 	addi    r2,r2,32512
    10000cf8:	f0 ff c1 fb 	std     r30,-16(r1)
    10000cfc:	f8 ff e1 fb 	std     r31,-8(r1)
    10000d00:	78 1b 7e 7c 	mr      r30,r3
    10000d04:	78 23 9f 7c 	mr      r31,r4
    10000d08:	c1 ff 21 f8 	stdu    r1,-64(r1)
    10000d0c:	00 00 83 90 	stw     r4,0(r3)
    10000d10:	04 00 a3 90 	stw     r5,4(r3)
    10000d14:	18 00 e3 f8 	std     r7,24(r3)
    10000d18:	30 00 23 d8 	stfd    f1,48(r3)
    10000d1c:	10 00 c3 f8 	std     r6,16(r3)
    10000d20:	28 00 03 f9 	std     r8,40(r3)
    10000d24:	20 00 23 f9 	std     r9,32(r3)
    10000d28:	a0 00 41 e9 	ld      r10,160(r1)
    10000d2c:	00 00 2a 2c 	cmpdi   r10,0
    10000d30:	08 00 43 f9 	std     r10,8(r3)
    10000d34:	6c 00 82 41 	beq     10000da0 <init+0xb0>
    10000d38:	01 00 1f 2c 	cmpwi   r31,1
    10000d3c:	00 00 60 38 	li      r3,0
    10000d40:	44 00 81 40 	ble     10000d84 <init+0x94>
    10000d44:	fe ff ff 3b 	addi    r31,r31,-2
    10000d48:	00 00 87 c9 	lfd     f12,0(r7)
    10000d4c:	01 00 20 39 	li      r9,1
    10000d50:	20 00 ff 7b 	clrldi  r31,r31,32
    10000d54:	00 00 60 38 	li      r3,0
    10000d58:	01 00 5f 39 	addi    r10,r31,1
    10000d5c:	a6 03 49 7d 	mtctr   r10
    10000d60:	24 1f 2a 79 	rldicr  r10,r9,3,60
    10000d64:	b4 07 28 7d 	extsw   r8,r9
    10000d68:	01 00 29 39 	addi    r9,r9,1
    10000d6c:	ae 54 07 7c 	lfdx    f0,r7,r10
    10000d70:	00 60 00 fc 	fcmpu   cr0,f0,f12
    10000d74:	0c 00 80 40 	bge     10000d80 <init+0x90>
    10000d78:	90 00 80 fd 	fmr     f12,f0
    10000d7c:	78 43 03 7d 	mr      r3,r8
    10000d80:	e0 ff 00 42 	bdnz    10000d60 <init+0x70>
    10000d84:	40 00 21 38 	addi    r1,r1,64
    10000d88:	f0 ff c1 eb 	ld      r30,-16(r1)
    10000d8c:	f8 ff e1 eb 	ld      r31,-8(r1)
    10000d90:	20 00 80 4e 	blr
    10000d94:	00 00 00 60 	nop
    10000d98:	00 00 00 60 	nop
    10000d9c:	00 00 42 60 	ori     r2,r2,0
    10000da0:	a6 02 08 7c 	mflr    r0
    10000da4:	20 00 81 fb 	std     r28,32(r1)
    10000da8:	14 2a 84 7f 	add     r28,r4,r5
    10000dac:	28 00 a1 fb 	std     r29,40(r1)
    10000db0:	01 00 7c 38 	addi    r3,r28,1
    10000db4:	04 00 80 38 	li      r4,4
    10000db8:	80 00 e1 f8 	std     r7,128(r1)
    10000dbc:	b4 07 63 7c 	extsw   r3,r3
    10000dc0:	b4 07 9d 7f 	extsw   r29,r28
    10000dc4:	50 00 01 f8 	std     r0,80(r1)
    10000dc8:	b9 f8 ff 4b 	bl      10000680 <00000036.plt_call.calloc@@GLIBC_2.17>
    10000dcc:	18 00 41 e8 	ld      r2,24(r1)
    10000dd0:	00 00 1c 2c 	cmpwi   r28,0
    10000dd4:	80 00 e1 e8 	ld      r7,128(r1)
    10000dd8:	08 00 7e f8 	std     r3,8(r30)
    10000ddc:	34 00 81 40 	ble     10000e10 <init+0x120>
    10000de0:	ff ff bd 3b 	addi    r29,r29,-1
    10000de4:	fc ff 63 38 	addi    r3,r3,-4
    10000de8:	20 00 bd 7b 	clrldi  r29,r29,32
    10000dec:	00 00 20 39 	li      r9,0
    10000df0:	01 00 5d 39 	addi    r10,r29,1
    10000df4:	a6 03 49 7d 	mtctr   r10
    10000df8:	00 00 00 60 	nop
    10000dfc:	00 00 42 60 	ori     r2,r2,0
    10000e00:	01 00 09 39 	addi    r8,r9,1
    10000e04:	04 00 23 95 	stwu    r9,4(r3)
    10000e08:	b4 07 09 7d 	extsw   r9,r8
    10000e0c:	f4 ff 00 42 	bdnz    10000e00 <init+0x110>
    10000e10:	50 00 01 e8 	ld      r0,80(r1)
    10000e14:	20 00 81 eb 	ld      r28,32(r1)
    10000e18:	28 00 a1 eb 	ld      r29,40(r1)
    10000e1c:	a6 03 08 7c 	mtlr    r0
    10000e20:	18 ff ff 4b 	b       10000d38 <init+0x48>
    10000e24:	00 00 00 00 	.long 0x0
    10000e28:	00 00 00 01 	.long 0x1000000
    10000e2c:	80 04 00 00 	.long 0x480

0000000010000e30 <initial_node>:
    10000e30:	02 10 40 3c 	lis     r2,4098
    10000e34:	00 7f 42 38 	addi    r2,r2,32512
    10000e38:	a6 02 08 7c 	mflr    r0
    10000e3c:	c0 ff 01 fb 	std     r24,-64(r1)
    10000e40:	c8 ff 21 fb 	std     r25,-56(r1)
    10000e44:	d0 ff 41 fb 	std     r26,-48(r1)
    10000e48:	d8 ff 61 fb 	std     r27,-40(r1)
    10000e4c:	78 2b ba 7c 	mr      r26,r5
    10000e50:	78 33 db 7c 	mr      r27,r6
    10000e54:	e0 ff 81 fb 	std     r28,-32(r1)
    10000e58:	e8 ff a1 fb 	std     r29,-24(r1)
    10000e5c:	78 1b 7d 7c 	mr      r29,r3
    10000e60:	60 00 60 38 	li      r3,96
    10000e64:	f0 ff c1 fb 	std     r30,-16(r1)
    10000e68:	f8 ff e1 fb 	std     r31,-8(r1)
    10000e6c:	78 3b fc 7c 	mr      r28,r7
    10000e70:	78 23 9f 7c 	mr      r31,r4
    10000e74:	01 00 1d 3b 	addi    r24,r29,1
    10000e78:	01 00 3f 3b 	addi    r25,r31,1
    10000e7c:	10 00 01 f8 	std     r0,16(r1)
    10000e80:	a1 ff 21 f8 	stdu    r1,-96(r1)
    10000e84:	b4 07 39 7f 	extsw   r25,r25
    10000e88:	b4 07 18 7f 	extsw   r24,r24
    10000e8c:	d5 f8 ff 4b 	bl      10000760 <00000036.plt_call.malloc@@GLIBC_2.17>
    10000e90:	18 00 41 e8 	ld      r2,24(r1)
    10000e94:	78 cb 24 7f 	mr      r4,r25
    10000e98:	78 1b 7e 7c 	mr      r30,r3
    10000e9c:	78 c3 03 7f 	mr      r3,r24
    10000ea0:	e9 fc ff 4b 	bl      10000b88 <make_matrix+0x8>
    10000ea4:	78 1b 69 7c 	mr      r9,r3
    10000ea8:	78 c3 03 7f 	mr      r3,r24
    10000eac:	38 00 3e f9 	std     r9,56(r30)
    10000eb0:	89 fd ff 4b 	bl      10000c38 <make_vector+0x8>
    10000eb4:	78 1b 69 7c 	mr      r9,r3
    10000eb8:	78 cb 23 7f 	mr      r3,r25
    10000ebc:	40 00 3e f9 	std     r9,64(r30)
    10000ec0:	79 fd ff 4b 	bl      10000c38 <make_vector+0x8>
    10000ec4:	78 1b 69 7c 	mr      r9,r3
    10000ec8:	78 cb 23 7f 	mr      r3,r25
    10000ecc:	50 00 3e f9 	std     r9,80(r30)
    10000ed0:	69 fd ff 4b 	bl      10000c38 <make_vector+0x8>
    10000ed4:	78 1b 69 7c 	mr      r9,r3
    10000ed8:	78 eb a3 7f 	mr      r3,r29
    10000edc:	48 00 3e f9 	std     r9,72(r30)
    10000ee0:	59 fd ff 4b 	bl      10000c38 <make_vector+0x8>
    10000ee4:	78 1b 69 7c 	mr      r9,r3
    10000ee8:	78 fb e3 7f 	mr      r3,r31
    10000eec:	28 00 3e f9 	std     r9,40(r30)
    10000ef0:	49 fd ff 4b 	bl      10000c38 <make_vector+0x8>
    10000ef4:	00 00 1d 2c 	cmpwi   r29,0
    10000ef8:	00 00 be 93 	stw     r29,0(r30)
    10000efc:	04 00 fe 93 	stw     r31,4(r30)
    10000f00:	00 00 9f 2f 	cmpwi   cr7,r31,0
    10000f04:	30 00 7e f8 	std     r3,48(r30)
    10000f08:	78 00 81 40 	ble     10000f80 <initial_node+0x150>
    10000f0c:	ff ff 9d 38 	addi    r4,r29,-1
    10000f10:	ff ff 7f 39 	addi    r11,r31,-1
    10000f14:	40 00 fe e8 	ld      r7,64(r30)
    10000f18:	48 1f 84 78 	rldic   r4,r4,3,29
    10000f1c:	48 1f 6b 79 	rldic   r11,r11,3,29
    10000f20:	00 00 9f 2f 	cmpwi   cr7,r31,0
    10000f24:	08 00 84 38 	addi    r4,r4,8
    10000f28:	08 00 6b 39 	addi    r11,r11,8
    10000f2c:	00 00 80 39 	li      r12,0
    10000f30:	ae 64 1b 7c 	lfdx    f0,r27,r12
    10000f34:	ae 65 07 7c 	stfdx   f0,r7,r12
    10000f38:	3c 00 9d 40 	ble     cr7,10000f74 <initial_node+0x144>
    10000f3c:	38 00 5e e9 	ld      r10,56(r30)
    10000f40:	2a 60 1a 7d 	ldx     r8,r26,r12
    10000f44:	00 00 20 39 	li      r9,0
    10000f48:	2a 60 4a 7d 	ldx     r10,r10,r12
    10000f4c:	14 00 00 48 	b       10000f60 <initial_node+0x130>
    10000f50:	00 00 00 60 	nop
    10000f54:	00 00 00 60 	nop
    10000f58:	00 00 00 60 	nop
    10000f5c:	00 00 42 60 	ori     r2,r2,0
    10000f60:	ae 4c 08 7c 	lfdx    f0,r8,r9
    10000f64:	ae 4d 0a 7c 	stfdx   f0,r10,r9
    10000f68:	08 00 29 39 	addi    r9,r9,8
    10000f6c:	40 48 2b 7c 	cmpld   r11,r9
    10000f70:	f0 ff 82 40 	bne     10000f60 <initial_node+0x130>
    10000f74:	08 00 8c 39 	addi    r12,r12,8
    10000f78:	40 60 24 7c 	cmpld   r4,r12
    10000f7c:	b4 ff 82 40 	bne     10000f30 <initial_node+0x100>
    10000f80:	58 00 9d 40 	ble     cr7,10000fd8 <initial_node+0x1a8>
    10000f84:	ff ff 5f 39 	addi    r10,r31,-1
    10000f88:	fe ff 22 3d 	addis   r9,r2,-2
    10000f8c:	50 00 fe e8 	ld      r7,80(r30)
    10000f90:	28 00 1e e9 	ld      r8,40(r30)
    10000f94:	20 00 4a 79 	clrldi  r10,r10,32
    10000f98:	01 00 4a 39 	addi    r10,r10,1
    10000f9c:	b0 b0 69 c9 	lfd     f11,-20304(r9)
    10000fa0:	fe ff 22 3d 	addis   r9,r2,-2
    10000fa4:	a6 03 49 7d 	mtctr   r10
    10000fa8:	b8 b0 89 c9 	lfd     f12,-20296(r9)
    10000fac:	00 00 20 39 	li      r9,0
    10000fb0:	00 00 00 60 	nop
    10000fb4:	00 00 00 60 	nop
    10000fb8:	00 00 00 60 	nop
    10000fbc:	00 00 42 60 	ori     r2,r2,0
    10000fc0:	ae 4c 1c 7c 	lfdx    f0,r28,r9
    10000fc4:	ae 4d 07 7c 	stfdx   f0,r7,r9
    10000fc8:	ae 4d 68 7d 	stfdx   f11,r8,r9
    10000fcc:	ae 4d 83 7d 	stfdx   f12,r3,r9
    10000fd0:	08 00 29 39 	addi    r9,r9,8
    10000fd4:	ec ff 00 42 	bdnz    10000fc0 <initial_node+0x190>
    10000fd8:	60 00 21 38 	addi    r1,r1,96
    10000fdc:	78 f3 c3 7f 	mr      r3,r30
    10000fe0:	10 00 01 e8 	ld      r0,16(r1)
    10000fe4:	c0 ff 01 eb 	ld      r24,-64(r1)
    10000fe8:	c8 ff 21 eb 	ld      r25,-56(r1)
    10000fec:	d0 ff 41 eb 	ld      r26,-48(r1)
    10000ff0:	d8 ff 61 eb 	ld      r27,-40(r1)
    10000ff4:	e0 ff 81 eb 	ld      r28,-32(r1)
    10000ff8:	e8 ff a1 eb 	ld      r29,-24(r1)
    10000ffc:	f0 ff c1 eb 	ld      r30,-16(r1)
    10001000:	f8 ff e1 eb 	ld      r31,-8(r1)
    10001004:	a6 03 08 7c 	mtlr    r0
    10001008:	20 00 80 4e 	blr
    1000100c:	00 00 00 00 	.long 0x0
    10001010:	00 00 00 01 	.long 0x1000000
    10001014:	80 08 00 00 	.long 0x880
    10001018:	00 00 00 60 	nop
    1000101c:	00 00 42 60 	ori     r2,r2,0

0000000010001020 <extend>:
    10001020:	02 10 40 3c 	lis     r2,4098
    10001024:	00 7f 42 38 	addi    r2,r2,32512
    10001028:	a6 02 08 7c 	mflr    r0
    1000102c:	f0 ff c1 db 	stfd    f30,-16(r1)
    10001030:	f8 ff e1 db 	stfd    f31,-8(r1)
    10001034:	a8 ff e1 fa 	std     r23,-88(r1)
    10001038:	b0 ff 01 fb 	std     r24,-80(r1)
    1000103c:	90 08 e0 ff 	fmr     f31,f1
    10001040:	78 1b 78 7c 	mr      r24,r3
    10001044:	60 00 60 38 	li      r3,96
    10001048:	90 10 c0 ff 	fmr     f30,f2
    1000104c:	b8 ff 21 fb 	std     r25,-72(r1)
    10001050:	c0 ff 41 fb 	std     r26,-64(r1)
    10001054:	78 4b 37 7d 	mr      r23,r9
    10001058:	78 43 19 7d 	mr      r25,r8
    1000105c:	c8 ff 61 fb 	std     r27,-56(r1)
    10001060:	d0 ff 81 fb 	std     r28,-48(r1)
    10001064:	78 33 db 7c 	mr      r27,r6
    10001068:	78 3b fc 7c 	mr      r28,r7
    1000106c:	d8 ff a1 fb 	std     r29,-40(r1)
    10001070:	e0 ff c1 fb 	std     r30,-32(r1)
    10001074:	78 2b bd 7c 	mr      r29,r5
    10001078:	78 23 9e 7c 	mr      r30,r4
    1000107c:	e8 ff e1 fb 	std     r31,-24(r1)
    10001080:	10 00 01 f8 	std     r0,16(r1)
    10001084:	24 1f fa 7a 	rldicr  r26,r23,3,60
    10001088:	81 ff 21 f8 	stdu    r1,-128(r1)
    1000108c:	d5 f6 ff 4b 	bl      10000760 <00000036.plt_call.malloc@@GLIBC_2.17>
    10001090:	18 00 41 e8 	ld      r2,24(r1)
    10001094:	02 00 58 e9 	lwa     r10,0(r24)
    10001098:	d0 04 00 f0 	xxlxor  vs0,vs0,vs0
    1000109c:	00 00 1f fc 	fcmpu   cr0,f31,f0
    100010a0:	08 00 e3 92 	stw     r23,8(r3)
    100010a4:	18 00 e3 db 	stfd    f31,24(r3)
    100010a8:	78 1b 7f 7c 	mr      r31,r3
    100010ac:	20 00 c3 db 	stfd    f30,32(r3)
    100010b0:	28 00 81 40 	ble     100010d8 <extend+0xb8>
    100010b4:	30 00 38 e9 	ld      r9,48(r24)
    100010b8:	fe ff 02 3d 	addis   r8,r2,-2
    100010bc:	c0 b0 88 c9 	lfd     f12,-20288(r8)
    100010c0:	ae d4 09 7c 	lfdx    f0,r9,r26
    100010c4:	00 60 00 fc 	fcmpu   cr0,f0,f12
    100010c8:	82 13 40 4c 	cror    eq,lt,eq
    100010cc:	0c 00 82 40 	bne     100010d8 <extend+0xb8>
    100010d0:	00 00 5f 91 	stw     r10,0(r31)
    100010d4:	1c 00 00 48 	b       100010f0 <extend+0xd0>
    100010d8:	d0 04 00 f0 	xxlxor  vs0,vs0,vs0
    100010dc:	00 00 1f fc 	fcmpu   cr0,f31,f0
    100010e0:	84 02 80 41 	blt     10001364 <extend+0x344>
    100010e4:	01 00 2a 39 	addi    r9,r10,1
    100010e8:	b4 07 2a 7d 	extsw   r10,r9
    100010ec:	00 00 3f 91 	stw     r9,0(r31)
    100010f0:	06 00 38 e9 	lwa     r9,4(r24)
    100010f4:	01 00 4a 39 	addi    r10,r10,1
    100010f8:	ff ff 00 39 	li      r8,-1
    100010fc:	b4 07 43 7d 	extsw   r3,r10
    10001100:	0c 00 1f 91 	stw     r8,12(r31)
    10001104:	01 00 89 38 	addi    r4,r9,1
    10001108:	04 00 3f 91 	stw     r9,4(r31)
    1000110c:	b4 07 84 7c 	extsw   r4,r4
    10001110:	79 fa ff 4b 	bl      10000b88 <make_matrix+0x8>
    10001114:	00 00 3f 81 	lwz     r9,0(r31)
    10001118:	38 00 7f f8 	std     r3,56(r31)
    1000111c:	01 00 29 39 	addi    r9,r9,1
    10001120:	b4 07 23 7d 	extsw   r3,r9
    10001124:	15 fb ff 4b 	bl      10000c38 <make_vector+0x8>
    10001128:	04 00 3f 81 	lwz     r9,4(r31)
    1000112c:	40 00 7f f8 	std     r3,64(r31)
    10001130:	01 00 29 39 	addi    r9,r9,1
    10001134:	b4 07 23 7d 	extsw   r3,r9
    10001138:	01 fb ff 4b 	bl      10000c38 <make_vector+0x8>
    1000113c:	04 00 3f 81 	lwz     r9,4(r31)
    10001140:	50 00 7f f8 	std     r3,80(r31)
    10001144:	01 00 29 39 	addi    r9,r9,1
    10001148:	b4 07 23 7d 	extsw   r3,r9
    1000114c:	ed fa ff 4b 	bl      10000c38 <make_vector+0x8>
    10001150:	78 1b 69 7c 	mr      r9,r3
    10001154:	78 eb a3 7f 	mr      r3,r29
    10001158:	48 00 3f f9 	std     r9,72(r31)
    1000115c:	dd fa ff 4b 	bl      10000c38 <make_vector+0x8>
    10001160:	78 1b 69 7c 	mr      r9,r3
    10001164:	78 eb a3 7f 	mr      r3,r29
    10001168:	28 00 3f f9 	std     r9,40(r31)
    1000116c:	cd fa ff 4b 	bl      10000c38 <make_vector+0x8>
    10001170:	00 00 9d 2f 	cmpwi   cr7,r29,0
    10001174:	30 00 7f f8 	std     r3,48(r31)
    10001178:	48 00 9d 40 	ble     cr7,100011c0 <extend+0x1a0>
    1000117c:	ff ff 5d 39 	addi    r10,r29,-1
    10001180:	28 00 b8 e8 	ld      r5,40(r24)
    10001184:	30 00 d8 e8 	ld      r6,48(r24)
    10001188:	28 00 ff e8 	ld      r7,40(r31)
    1000118c:	50 00 1f e9 	ld      r8,80(r31)
    10001190:	00 00 20 39 	li      r9,0
    10001194:	20 00 4a 79 	clrldi  r10,r10,32
    10001198:	01 00 4a 39 	addi    r10,r10,1
    1000119c:	a6 03 49 7d 	mtctr   r10
    100011a0:	ae 4c 05 7c 	lfdx    f0,r5,r9
    100011a4:	ae 4d 07 7c 	stfdx   f0,r7,r9
    100011a8:	ae 4c 86 7d 	lfdx    f12,r6,r9
    100011ac:	ae 4c 19 7c 	lfdx    f0,r25,r9
    100011b0:	ae 4d 83 7d 	stfdx   f12,r3,r9
    100011b4:	ae 4d 08 7c 	stfdx   f0,r8,r9
    100011b8:	08 00 29 39 	addi    r9,r9,8
    100011bc:	e4 ff 00 42 	bdnz    100011a0 <extend+0x180>
    100011c0:	00 00 1e 2c 	cmpwi   r30,0
    100011c4:	7c 00 81 40 	ble     10001240 <extend+0x220>
    100011c8:	ff ff fe 38 	addi    r7,r30,-1
    100011cc:	ff ff 7d 39 	addi    r11,r29,-1
    100011d0:	40 00 df e8 	ld      r6,64(r31)
    100011d4:	48 1f e7 78 	rldic   r7,r7,3,29
    100011d8:	48 1f 6b 79 	rldic   r11,r11,3,29
    100011dc:	08 00 e7 38 	addi    r7,r7,8
    100011e0:	08 00 6b 39 	addi    r11,r11,8
    100011e4:	00 00 80 39 	li      r12,0
    100011e8:	00 00 00 60 	nop
    100011ec:	00 00 42 60 	ori     r2,r2,0
    100011f0:	ae 64 1c 7c 	lfdx    f0,r28,r12
    100011f4:	ae 65 06 7c 	stfdx   f0,r6,r12
    100011f8:	3c 00 9d 40 	ble     cr7,10001234 <extend+0x214>
    100011fc:	38 00 5f e9 	ld      r10,56(r31)
    10001200:	2a 60 1b 7d 	ldx     r8,r27,r12
    10001204:	00 00 20 39 	li      r9,0
    10001208:	2a 60 4a 7d 	ldx     r10,r10,r12
    1000120c:	14 00 00 48 	b       10001220 <extend+0x200>
    10001210:	00 00 00 60 	nop
    10001214:	00 00 00 60 	nop
    10001218:	00 00 00 60 	nop
    1000121c:	00 00 42 60 	ori     r2,r2,0
    10001220:	ae 4c 08 7c 	lfdx    f0,r8,r9
    10001224:	ae 4d 0a 7c 	stfdx   f0,r10,r9
    10001228:	08 00 29 39 	addi    r9,r9,8
    1000122c:	40 48 2b 7c 	cmpld   r11,r9
    10001230:	f0 ff 82 40 	bne     10001220 <extend+0x200>
    10001234:	08 00 8c 39 	addi    r12,r12,8
    10001238:	40 60 27 7c 	cmpld   r7,r12
    1000123c:	b4 ff 82 40 	bne     100011f0 <extend+0x1d0>
    10001240:	d0 04 00 f0 	xxlxor  vs0,vs0,vs0
    10001244:	00 00 1f fc 	fcmpu   cr0,f31,f0
    10001248:	34 01 81 40 	ble     1000137c <extend+0x35c>
    1000124c:	fe ff 22 3d 	addis   r9,r2,-2
    10001250:	ae d4 83 7d 	lfdx    f12,r3,r26
    10001254:	b0 b0 09 c8 	lfd     f0,-20304(r9)
    10001258:	00 00 0c fc 	fcmpu   cr0,f12,f0
    1000125c:	f8 00 82 40 	bne     10001354 <extend+0x334>
    10001260:	ae d5 c3 7f 	stfdx   f30,r3,r26
    10001264:	b0 00 9d 40 	ble     cr7,10001314 <extend+0x2f4>
    10001268:	ff ff 5d 39 	addi    r10,r29,-1
    1000126c:	fe ff 22 3d 	addis   r9,r2,-2
    10001270:	28 00 1f e9 	ld      r8,40(r31)
    10001274:	20 00 4a 79 	clrldi  r10,r10,32
    10001278:	01 00 4a 39 	addi    r10,r10,1
    1000127c:	c8 b0 69 c9 	lfd     f11,-20280(r9)
    10001280:	fe ff 22 3d 	addis   r9,r2,-2
    10001284:	a6 03 49 7d 	mtctr   r10
    10001288:	c0 b0 89 c9 	lfd     f12,-20288(r9)
    1000128c:	00 00 20 39 	li      r9,0
    10001290:	ae 4c 08 7c 	lfdx    f0,r8,r9
    10001294:	24 1f ca 7b 	rldicr  r10,r30,3,60
    10001298:	01 00 fe 38 	addi    r7,r30,1
    1000129c:	00 58 00 fc 	fcmpu   cr0,f0,f11
    100012a0:	82 13 41 4c 	cror    eq,gt,eq
    100012a4:	2c 00 82 40 	bne     100012d0 <extend+0x2b0>
    100012a8:	fe ff c2 3c 	addis   r6,r2,-2
    100012ac:	38 00 bf e8 	ld      r5,56(r31)
    100012b0:	b4 07 fe 7c 	extsw   r30,r7
    100012b4:	d0 b0 06 c8 	lfd     f0,-20272(r6)
    100012b8:	40 00 df e8 	ld      r6,64(r31)
    100012bc:	2a 50 e5 7c 	ldx     r7,r5,r10
    100012c0:	ae 4d 07 7c 	stfdx   f0,r7,r9
    100012c4:	ae 4c 08 7c 	lfdx    f0,r8,r9
    100012c8:	50 00 00 fc 	fneg    f0,f0
    100012cc:	ae 55 06 7c 	stfdx   f0,r6,r10
    100012d0:	ae 4c 03 7c 	lfdx    f0,r3,r9
    100012d4:	24 1f ca 7b 	rldicr  r10,r30,3,60
    100012d8:	01 00 fe 38 	addi    r7,r30,1
    100012dc:	00 60 00 fc 	fcmpu   cr0,f0,f12
    100012e0:	82 13 40 4c 	cror    eq,lt,eq
    100012e4:	28 00 82 40 	bne     1000130c <extend+0x2ec>
    100012e8:	fe ff c2 3c 	addis   r6,r2,-2
    100012ec:	38 00 bf e8 	ld      r5,56(r31)
    100012f0:	b4 07 fe 7c 	extsw   r30,r7
    100012f4:	d8 b0 06 c8 	lfd     f0,-20264(r6)
    100012f8:	40 00 df e8 	ld      r6,64(r31)
    100012fc:	2a 50 e5 7c 	ldx     r7,r5,r10
    10001300:	ae 4d 07 7c 	stfdx   f0,r7,r9
    10001304:	ae 4c 03 7c 	lfdx    f0,r3,r9
    10001308:	ae 55 06 7c 	stfdx   f0,r6,r10
    1000130c:	08 00 29 39 	addi    r9,r9,8
    10001310:	80 ff 00 42 	bdnz    10001290 <extend+0x270>
    10001314:	80 00 21 38 	addi    r1,r1,128
    10001318:	78 fb e3 7f 	mr      r3,r31
    1000131c:	10 00 01 e8 	ld      r0,16(r1)
    10001320:	f0 ff c1 cb 	lfd     f30,-16(r1)
    10001324:	f8 ff e1 cb 	lfd     f31,-8(r1)
    10001328:	a8 ff e1 ea 	ld      r23,-88(r1)
    1000132c:	b0 ff 01 eb 	ld      r24,-80(r1)
    10001330:	b8 ff 21 eb 	ld      r25,-72(r1)
    10001334:	c0 ff 41 eb 	ld      r26,-64(r1)
    10001338:	c8 ff 61 eb 	ld      r27,-56(r1)
    1000133c:	d0 ff 81 eb 	ld      r28,-48(r1)
    10001340:	d8 ff a1 eb 	ld      r29,-40(r1)
    10001344:	e0 ff c1 eb 	ld      r30,-32(r1)
    10001348:	e8 ff e1 eb 	ld      r31,-24(r1)
    1000134c:	a6 03 08 7c 	mtlr    r0
    10001350:	20 00 80 4e 	blr
    10001354:	00 f0 0c fc 	fcmpu   cr0,f12,f30
    10001358:	0c ff 81 40 	ble     10001264 <extend+0x244>
    1000135c:	ae d5 c3 7f 	stfdx   f30,r3,r26
    10001360:	04 ff ff 4b 	b       10001264 <extend+0x244>
    10001364:	28 00 38 e9 	ld      r9,40(r24)
    10001368:	ae d4 89 7d 	lfdx    f12,r9,r26
    1000136c:	00 00 0c fc 	fcmpu   cr0,f12,f0
    10001370:	74 fd 81 40 	ble     100010e4 <extend+0xc4>
    10001374:	00 00 5f 91 	stw     r10,0(r31)
    10001378:	78 fd ff 4b 	b       100010f0 <extend+0xd0>
    1000137c:	28 00 3f e9 	ld      r9,40(r31)
    10001380:	fe ff 42 3d 	addis   r10,r2,-2
    10001384:	50 f0 c0 ff 	fneg    f30,f30
    10001388:	b0 b0 0a c8 	lfd     f0,-20304(r10)
    1000138c:	ae d4 89 7d 	lfdx    f12,r9,r26
    10001390:	00 00 0c fc 	fcmpu   cr0,f12,f0
    10001394:	0c 00 82 41 	beq     100013a0 <extend+0x380>
    10001398:	00 f0 0c fc 	fcmpu   cr0,f12,f30
    1000139c:	c8 fe 80 40 	bge     10001264 <extend+0x244>
    100013a0:	ae d5 c9 7f 	stfdx   f30,r9,r26
    100013a4:	c0 fe ff 4b 	b       10001264 <extend+0x244>
    100013a8:	00 00 00 00 	.long 0x0
    100013ac:	00 00 02 01 	.long 0x1020000
    100013b0:	82 09 00 00 	.long 0x982
    100013b4:	00 00 00 60 	nop
    100013b8:	00 00 00 60 	nop
    100013bc:	00 00 42 60 	ori     r2,r2,0

00000000100013c0 <is_integer>:
    100013c0:	02 10 40 3c 	lis     r2,4098
    100013c4:	00 7f 42 38 	addi    r2,r2,32512
    100013c8:	00 00 03 c8 	lfd     f0,0(r3)
    100013cc:	fe ff 22 3d 	addis   r9,r2,-2
    100013d0:	a8 b0 69 c9 	lfd     f11,-20312(r9)
    100013d4:	10 03 80 fd 	frin    f12,f0
    100013d8:	28 00 0c fc 	fsub    f0,f12,f0
    100013dc:	10 02 00 fc 	fabs    f0,f0
    100013e0:	00 58 00 fc 	fcmpu   cr0,f0,f11
    100013e4:	0c 00 80 41 	blt     100013f0 <is_integer+0x30>
    100013e8:	00 00 60 38 	li      r3,0
    100013ec:	20 00 80 4e 	blr
    100013f0:	00 00 83 d9 	stfd    f12,0(r3)
    100013f4:	01 00 60 38 	li      r3,1
    100013f8:	20 00 80 4e 	blr
	...
    10001408:	00 00 00 60 	nop
    1000140c:	00 00 42 60 	ori     r2,r2,0

0000000010001410 <integer>:
    10001410:	02 10 40 3c 	lis     r2,4098
    10001414:	00 7f 42 38 	addi    r2,r2,32512
    10001418:	04 00 23 81 	lwz     r9,4(r3)
    1000141c:	00 00 09 2c 	cmpwi   r9,0
    10001420:	8c 00 81 40 	ble     100014ac <integer+0x9c>
    10001424:	a6 02 08 7c 	mflr    r0
    10001428:	f0 ff c1 fb 	std     r30,-16(r1)
    1000142c:	f8 ff e1 fb 	std     r31,-8(r1)
    10001430:	78 1b 7e 7c 	mr      r30,r3
    10001434:	00 00 e0 3b 	li      r31,0
    10001438:	10 00 01 f8 	std     r0,16(r1)
    1000143c:	d1 ff 21 f8 	stdu    r1,-48(r1)
    10001440:	1c 00 00 48 	b       1000145c <integer+0x4c>
    10001444:	00 00 00 60 	nop
    10001448:	00 00 00 60 	nop
    1000144c:	00 00 42 60 	ori     r2,r2,0
    10001450:	04 00 3e 81 	lwz     r9,4(r30)
    10001454:	00 f8 09 7c 	cmpw    r9,r31
    10001458:	38 00 81 40 	ble     10001490 <integer+0x80>
    1000145c:	48 00 7e e8 	ld      r3,72(r30)
    10001460:	24 1f e9 7b 	rldicr  r9,r31,3,60
    10001464:	01 00 ff 3b 	addi    r31,r31,1
    10001468:	14 4a 63 7c 	add     r3,r3,r9
    1000146c:	5d ff ff 4b 	bl      100013c8 <is_integer+0x8>
    10001470:	00 00 23 2c 	cmpdi   r3,0
    10001474:	dc ff 82 40 	bne     10001450 <integer+0x40>
    10001478:	30 00 21 38 	addi    r1,r1,48
    1000147c:	10 00 01 e8 	ld      r0,16(r1)
    10001480:	f0 ff c1 eb 	ld      r30,-16(r1)
    10001484:	f8 ff e1 eb 	ld      r31,-8(r1)
    10001488:	a6 03 08 7c 	mtlr    r0
    1000148c:	20 00 80 4e 	blr
    10001490:	30 00 21 38 	addi    r1,r1,48
    10001494:	01 00 60 38 	li      r3,1
    10001498:	10 00 01 e8 	ld      r0,16(r1)
    1000149c:	f0 ff c1 eb 	ld      r30,-16(r1)
    100014a0:	f8 ff e1 eb 	ld      r31,-8(r1)
    100014a4:	a6 03 08 7c 	mtlr    r0
    100014a8:	20 00 80 4e 	blr
    100014ac:	01 00 60 38 	li      r3,1
    100014b0:	20 00 80 4e 	blr
    100014b4:	00 00 00 00 	.long 0x0
    100014b8:	00 00 00 01 	.long 0x1000000
    100014bc:	80 02 00 00 	.long 0x280

00000000100014c0 <branch>:
    100014c0:	02 10 40 3c 	lis     r2,4098
    100014c4:	00 7f 42 38 	addi    r2,r2,32512
    100014c8:	58 00 03 c8 	lfd     f0,88(r3)
    100014cc:	a1 ff 21 f8 	stdu    r1,-96(r1)
    100014d0:	00 08 00 fc 	fcmpu   cr0,f0,f1
    100014d4:	04 01 80 41 	blt     100015d8 <branch+0x118>
    100014d8:	04 00 23 81 	lwz     r9,4(r3)
    100014dc:	50 00 e1 fb 	std     r31,80(r1)
    100014e0:	78 1b 7f 7c 	mr      r31,r3
    100014e4:	00 00 09 2c 	cmpwi   r9,0
    100014e8:	08 01 81 40 	ble     100015f0 <branch+0x130>
    100014ec:	a6 02 08 7c 	mflr    r0
    100014f0:	38 00 81 fb 	std     r28,56(r1)
    100014f4:	40 00 a1 fb 	std     r29,64(r1)
    100014f8:	58 00 e1 db 	stfd    f31,88(r1)
    100014fc:	d0 fc ff f3 	xxlxor  vs31,vs31,vs31
    10001500:	48 00 c1 fb 	std     r30,72(r1)
    10001504:	00 00 c0 3b 	li      r30,0
    10001508:	70 00 01 f8 	std     r0,112(r1)
    1000150c:	48 00 7f e8 	ld      r3,72(r31)
    10001510:	24 1f dd 7b 	rldicr  r29,r30,3,60
    10001514:	b4 07 dc 7f 	extsw   r28,r30
    10001518:	01 00 de 3b 	addi    r30,r30,1
    1000151c:	14 ea 63 7c 	add     r3,r3,r29
    10001520:	a9 fe ff 4b 	bl      100013c8 <is_integer+0x8>
    10001524:	00 00 23 2c 	cmpdi   r3,0
    10001528:	88 00 82 40 	bne     100015b0 <branch+0xf0>
    1000152c:	28 00 3f e9 	ld      r9,40(r31)
    10001530:	fe ff 42 3d 	addis   r10,r2,-2
    10001534:	b0 b0 0a c8 	lfd     f0,-20304(r10)
    10001538:	ae ec 89 7d 	lfdx    f12,r9,r29
    1000153c:	00 00 0c fc 	fcmpu   cr0,f12,f0
    10001540:	08 00 80 40 	bge     10001548 <branch+0x88>
    10001544:	90 f8 80 fd 	fmr     f12,f31
    10001548:	48 00 3f e9 	ld      r9,72(r31)
    1000154c:	ae ec 69 7d 	lfdx    f11,r9,r29
    10001550:	d0 5b 00 fc 	frim    f0,f11
    10001554:	00 60 00 fc 	fcmpu   cr0,f0,f12
    10001558:	58 00 80 41 	blt     100015b0 <branch+0xf0>
    1000155c:	30 00 3f e9 	ld      r9,48(r31)
    10001560:	90 5b 00 fc 	frip    f0,f11
    10001564:	ae ec 89 7d 	lfdx    f12,r9,r29
    10001568:	00 60 00 fc 	fcmpu   cr0,f0,f12
    1000156c:	44 00 81 41 	bgt     100015b0 <branch+0xf0>
    10001570:	70 00 01 e8 	ld      r0,112(r1)
    10001574:	01 00 20 39 	li      r9,1
    10001578:	0c 00 9f 93 	stw     r28,12(r31)
    1000157c:	10 00 7f d9 	stfd    f11,16(r31)
    10001580:	58 00 e1 cb 	lfd     f31,88(r1)
    10001584:	38 00 81 eb 	ld      r28,56(r1)
    10001588:	40 00 a1 eb 	ld      r29,64(r1)
    1000158c:	48 00 c1 eb 	ld      r30,72(r1)
    10001590:	78 4b 23 7d 	mr      r3,r9
    10001594:	20 00 21 f9 	std     r9,32(r1)
    10001598:	50 00 e1 eb 	ld      r31,80(r1)
    1000159c:	60 00 21 38 	addi    r1,r1,96
    100015a0:	a6 03 08 7c 	mtlr    r0
    100015a4:	20 00 80 4e 	blr
    100015a8:	00 00 00 60 	nop
    100015ac:	00 00 42 60 	ori     r2,r2,0
    100015b0:	04 00 3f 81 	lwz     r9,4(r31)
    100015b4:	00 f0 09 7c 	cmpw    r9,r30
    100015b8:	54 ff 81 41 	bgt     1000150c <branch+0x4c>
    100015bc:	70 00 01 e8 	ld      r0,112(r1)
    100015c0:	58 00 e1 cb 	lfd     f31,88(r1)
    100015c4:	38 00 81 eb 	ld      r28,56(r1)
    100015c8:	40 00 a1 eb 	ld      r29,64(r1)
    100015cc:	48 00 c1 eb 	ld      r30,72(r1)
    100015d0:	50 00 e1 eb 	ld      r31,80(r1)
    100015d4:	a6 03 08 7c 	mtlr    r0
    100015d8:	00 00 20 39 	li      r9,0
    100015dc:	78 4b 23 7d 	mr      r3,r9
    100015e0:	20 00 21 f9 	std     r9,32(r1)
    100015e4:	60 00 21 38 	addi    r1,r1,96
    100015e8:	20 00 80 4e 	blr
    100015ec:	00 00 42 60 	ori     r2,r2,0
    100015f0:	50 00 e1 eb 	ld      r31,80(r1)
    100015f4:	e4 ff ff 4b 	b       100015d8 <branch+0x118>
    100015f8:	00 00 00 00 	.long 0x0
    100015fc:	00 00 02 01 	.long 0x1020000
    10001600:	81 04 00 00 	.long 0x481
    10001604:	00 00 00 60 	nop
    10001608:	00 00 00 60 	nop
    1000160c:	00 00 42 60 	ori     r2,r2,0

0000000010001610 <free_node>:
    10001610:	02 10 40 3c 	lis     r2,4098
    10001614:	00 7f 42 38 	addi    r2,r2,32512
    10001618:	f8 ff e1 fb 	std     r31,-8(r1)
    1000161c:	79 1b 7f 7c 	mr.     r31,r3
    10001620:	d1 ff 21 f8 	stdu    r1,-48(r1)
    10001624:	e0 00 82 41 	beq     10001704 <free_node+0xf4>
    10001628:	a6 02 08 7c 	mflr    r0
    1000162c:	28 00 7f e8 	ld      r3,40(r31)
    10001630:	00 00 23 2c 	cmpdi   r3,0
    10001634:	40 00 01 f8 	std     r0,64(r1)
    10001638:	0c 00 82 41 	beq     10001644 <free_node+0x34>
    1000163c:	a5 f0 ff 4b 	bl      100006e0 <00000036.plt_call.free@@GLIBC_2.17>
    10001640:	18 00 41 e8 	ld      r2,24(r1)
    10001644:	30 00 7f e8 	ld      r3,48(r31)
    10001648:	00 00 23 2c 	cmpdi   r3,0
    1000164c:	0c 00 82 41 	beq     10001658 <free_node+0x48>
    10001650:	91 f0 ff 4b 	bl      100006e0 <00000036.plt_call.free@@GLIBC_2.17>
    10001654:	18 00 41 e8 	ld      r2,24(r1)
    10001658:	40 00 7f e8 	ld      r3,64(r31)
    1000165c:	00 00 23 2c 	cmpdi   r3,0
    10001660:	0c 00 82 41 	beq     1000166c <free_node+0x5c>
    10001664:	7d f0 ff 4b 	bl      100006e0 <00000036.plt_call.free@@GLIBC_2.17>
    10001668:	18 00 41 e8 	ld      r2,24(r1)
    1000166c:	50 00 7f e8 	ld      r3,80(r31)
    10001670:	00 00 23 2c 	cmpdi   r3,0
    10001674:	0c 00 82 41 	beq     10001680 <free_node+0x70>
    10001678:	69 f0 ff 4b 	bl      100006e0 <00000036.plt_call.free@@GLIBC_2.17>
    1000167c:	18 00 41 e8 	ld      r2,24(r1)
    10001680:	48 00 7f e8 	ld      r3,72(r31)
    10001684:	00 00 23 2c 	cmpdi   r3,0
    10001688:	0c 00 82 41 	beq     10001694 <free_node+0x84>
    1000168c:	55 f0 ff 4b 	bl      100006e0 <00000036.plt_call.free@@GLIBC_2.17>
    10001690:	18 00 41 e8 	ld      r2,24(r1)
    10001694:	38 00 7f e8 	ld      r3,56(r31)
    10001698:	00 00 23 2c 	cmpdi   r3,0
    1000169c:	54 00 82 41 	beq     100016f0 <free_node+0xe0>
    100016a0:	00 00 3f 81 	lwz     r9,0(r31)
    100016a4:	00 00 09 2c 	cmpwi   r9,0
    100016a8:	40 00 80 41 	blt     100016e8 <free_node+0xd8>
    100016ac:	20 00 c1 fb 	std     r30,32(r1)
    100016b0:	00 00 c0 3b 	li      r30,0
    100016b4:	00 00 00 60 	nop
    100016b8:	00 00 00 60 	nop
    100016bc:	00 00 42 60 	ori     r2,r2,0
    100016c0:	24 1f c9 7b 	rldicr  r9,r30,3,60
    100016c4:	01 00 de 3b 	addi    r30,r30,1
    100016c8:	2a 48 63 7c 	ldx     r3,r3,r9
    100016cc:	15 f0 ff 4b 	bl      100006e0 <00000036.plt_call.free@@GLIBC_2.17>
    100016d0:	18 00 41 e8 	ld      r2,24(r1)
    100016d4:	00 00 3f 81 	lwz     r9,0(r31)
    100016d8:	38 00 7f e8 	ld      r3,56(r31)
    100016dc:	00 f0 09 7c 	cmpw    r9,r30
    100016e0:	e0 ff 80 40 	bge     100016c0 <free_node+0xb0>
    100016e4:	20 00 c1 eb 	ld      r30,32(r1)
    100016e8:	f9 ef ff 4b 	bl      100006e0 <00000036.plt_call.free@@GLIBC_2.17>
    100016ec:	18 00 41 e8 	ld      r2,24(r1)
    100016f0:	78 fb e3 7f 	mr      r3,r31
    100016f4:	ed ef ff 4b 	bl      100006e0 <00000036.plt_call.free@@GLIBC_2.17>
    100016f8:	18 00 41 e8 	ld      r2,24(r1)
    100016fc:	40 00 01 e8 	ld      r0,64(r1)
    10001700:	a6 03 08 7c 	mtlr    r0
    10001704:	30 00 21 38 	addi    r1,r1,48
    10001708:	f8 ff e1 eb 	ld      r31,-8(r1)
    1000170c:	20 00 80 4e 	blr
    10001710:	00 00 00 00 	.long 0x0
    10001714:	00 00 00 01 	.long 0x1000000
    10001718:	80 02 00 00 	.long 0x280
    1000171c:	00 00 42 60 	ori     r2,r2,0

0000000010001720 <shuffle_left>:
    10001720:	02 10 40 3c 	lis     r2,4098
    10001724:	00 7f 42 38 	addi    r2,r2,32512
    10001728:	a6 02 08 7c 	mflr    r0
    1000172c:	f8 ff e1 fb 	std     r31,-8(r1)
    10001730:	78 1b 7f 7c 	mr      r31,r3
    10001734:	10 00 01 f8 	std     r0,16(r1)
    10001738:	d1 ff 21 f8 	stdu    r1,-48(r1)
    1000173c:	08 00 23 e9 	ld      r9,8(r3)
    10001740:	00 00 29 2c 	cmpdi   r9,0
    10001744:	5c 00 82 41 	beq     100017a0 <shuffle_left+0x80>
    10001748:	00 00 63 e8 	ld      r3,0(r3)
    1000174c:	cd fe ff 4b 	bl      10001618 <free_node+0x8>
    10001750:	08 00 7f e8 	ld      r3,8(r31)
    10001754:	00 00 23 2c 	cmpdi   r3,0
    10001758:	0c 00 82 40 	bne     10001764 <shuffle_left+0x44>
    1000175c:	44 00 00 48 	b       100017a0 <shuffle_left+0x80>
    10001760:	78 4b 23 7d 	mr      r3,r9
    10001764:	08 00 23 e9 	ld      r9,8(r3)
    10001768:	00 00 43 e9 	ld      r10,0(r3)
    1000176c:	00 00 29 2c 	cmpdi   r9,0
    10001770:	00 00 5f f9 	std     r10,0(r31)
    10001774:	78 1b 7f 7c 	mr      r31,r3
    10001778:	e8 ff 82 40 	bne     10001760 <shuffle_left+0x40>
    1000177c:	65 ef ff 4b 	bl      100006e0 <00000036.plt_call.free@@GLIBC_2.17>
    10001780:	18 00 41 e8 	ld      r2,24(r1)
    10001784:	30 00 21 38 	addi    r1,r1,48
    10001788:	10 00 01 e8 	ld      r0,16(r1)
    1000178c:	f8 ff e1 eb 	ld      r31,-8(r1)
    10001790:	a6 03 08 7c 	mtlr    r0
    10001794:	20 00 80 4e 	blr
    10001798:	00 00 00 60 	nop
    1000179c:	00 00 42 60 	ori     r2,r2,0
    100017a0:	78 fb e3 7f 	mr      r3,r31
    100017a4:	3d ef ff 4b 	bl      100006e0 <00000036.plt_call.free@@GLIBC_2.17>
    100017a8:	18 00 41 e8 	ld      r2,24(r1)
    100017ac:	30 00 21 38 	addi    r1,r1,48
    100017b0:	10 00 01 e8 	ld      r0,16(r1)
    100017b4:	f8 ff e1 eb 	ld      r31,-8(r1)
    100017b8:	a6 03 08 7c 	mtlr    r0
    100017bc:	20 00 80 4e 	blr
    100017c0:	00 00 00 00 	.long 0x0
    100017c4:	00 00 00 01 	.long 0x1000000
    100017c8:	80 01 00 00 	.long 0x180
    100017cc:	00 00 42 60 	ori     r2,r2,0

00000000100017d0 <delete_node>:
    100017d0:	02 10 40 3c 	lis     r2,4098
    100017d4:	00 7f 42 38 	addi    r2,r2,32512
    100017d8:	e8 ff c1 fb 	std     r30,-24(r1)
    100017dc:	79 1b 7e 7c 	mr.     r30,r3
    100017e0:	c1 ff 21 f8 	stdu    r1,-64(r1)
    100017e4:	48 00 82 41 	beq     1000182c <delete_node+0x5c>
    100017e8:	a6 02 08 7c 	mflr    r0
    100017ec:	38 00 e1 db 	stfd    f31,56(r1)
    100017f0:	90 08 e0 ff 	fmr     f31,f1
    100017f4:	30 00 e1 fb 	std     r31,48(r1)
    100017f8:	78 f3 df 7f 	mr      r31,r30
    100017fc:	50 00 01 f8 	std     r0,80(r1)
    10001800:	00 00 3f e9 	ld      r9,0(r31)
    10001804:	58 00 09 c8 	lfd     f0,88(r9)
    10001808:	00 f8 00 fc 	fcmpu   cr0,f0,f31
    1000180c:	34 00 80 41 	blt     10001840 <delete_node+0x70>
    10001810:	08 00 ff eb 	ld      r31,8(r31)
    10001814:	00 00 3f 2c 	cmpdi   r31,0
    10001818:	e8 ff 82 40 	bne     10001800 <delete_node+0x30>
    1000181c:	50 00 01 e8 	ld      r0,80(r1)
    10001820:	38 00 e1 cb 	lfd     f31,56(r1)
    10001824:	30 00 e1 eb 	ld      r31,48(r1)
    10001828:	a6 03 08 7c 	mtlr    r0
    1000182c:	40 00 21 38 	addi    r1,r1,64
    10001830:	e8 ff c1 eb 	ld      r30,-24(r1)
    10001834:	20 00 80 4e 	blr
    10001838:	00 00 00 60 	nop
    1000183c:	00 00 42 60 	ori     r2,r2,0
    10001840:	78 f3 c3 7f 	mr      r3,r30
    10001844:	e5 fe ff 4b 	bl      10001728 <shuffle_left+0x8>
    10001848:	b8 ff ff 4b 	b       10001800 <delete_node+0x30>
    1000184c:	00 00 00 00 	.long 0x0
    10001850:	00 00 02 01 	.long 0x1020000
    10001854:	81 02 00 00 	.long 0x281
    10001858:	00 00 00 60 	nop
    1000185c:	00 00 42 60 	ori     r2,r2,0

0000000010001860 <bound>:
    10001860:	02 10 40 3c 	lis     r2,4098
    10001864:	00 7f 42 38 	addi    r2,r2,32512
    10001868:	58 00 83 c9 	lfd     f12,88(r3)
    1000186c:	00 00 05 c8 	lfd     f0,0(r5)
    10001870:	00 00 0c fc 	fcmpu   cr0,f12,f0
    10001874:	20 00 81 4c 	blelr   
    10001878:	06 00 43 e9 	lwa     r10,4(r3)
    1000187c:	00 00 85 d9 	stfd    f12,0(r5)
    10001880:	00 00 0a 2c 	cmpwi   r10,0
    10001884:	2c 00 81 40 	ble     100018b0 <bound+0x50>
    10001888:	ff ff 4a 39 	addi    r10,r10,-1
    1000188c:	48 00 e3 e8 	ld      r7,72(r3)
    10001890:	00 00 20 39 	li      r9,0
    10001894:	20 00 4a 79 	clrldi  r10,r10,32
    10001898:	01 00 4a 39 	addi    r10,r10,1
    1000189c:	a6 03 49 7d 	mtctr   r10
    100018a0:	ae 4c 06 7c 	lfdx    f0,r6,r9
    100018a4:	ae 4d 07 7c 	stfdx   f0,r7,r9
    100018a8:	08 00 29 39 	addi    r9,r9,8
    100018ac:	f4 ff 00 42 	bdnz    100018a0 <bound+0x40>
    100018b0:	58 00 23 c8 	lfd     f1,88(r3)
    100018b4:	78 23 83 7c 	mr      r3,r4
    100018b8:	20 ff ff 4b 	b       100017d8 <delete_node+0x8>
	...
    100018c8:	00 00 00 60 	nop
    100018cc:	00 00 42 60 	ori     r2,r2,0

00000000100018d0 <free_list>:
    100018d0:	02 10 40 3c 	lis     r2,4098
    100018d4:	00 7f 42 38 	addi    r2,r2,32512
    100018d8:	f0 ff c1 fb 	std     r30,-16(r1)
    100018dc:	79 1b 7e 7c 	mr.     r30,r3
    100018e0:	d1 ff 21 f8 	stdu    r1,-48(r1)
    100018e4:	48 00 82 41 	beq     1000192c <free_list+0x5c>
    100018e8:	a6 02 08 7c 	mflr    r0
    100018ec:	28 00 e1 fb 	std     r31,40(r1)
    100018f0:	78 f3 df 7f 	mr      r31,r30
    100018f4:	40 00 01 f8 	std     r0,64(r1)
    100018f8:	00 00 00 60 	nop
    100018fc:	00 00 42 60 	ori     r2,r2,0
    10001900:	00 00 7e e8 	ld      r3,0(r30)
    10001904:	15 fd ff 4b 	bl      10001618 <free_node+0x8>
    10001908:	78 fb e3 7f 	mr      r3,r31
    1000190c:	08 00 ff eb 	ld      r31,8(r31)
    10001910:	d1 ed ff 4b 	bl      100006e0 <00000036.plt_call.free@@GLIBC_2.17>
    10001914:	18 00 41 e8 	ld      r2,24(r1)
    10001918:	00 00 3f 2c 	cmpdi   r31,0
    1000191c:	e4 ff 82 40 	bne     10001900 <free_list+0x30>
    10001920:	40 00 01 e8 	ld      r0,64(r1)
    10001924:	28 00 e1 eb 	ld      r31,40(r1)
    10001928:	a6 03 08 7c 	mtlr    r0
    1000192c:	30 00 21 38 	addi    r1,r1,48
    10001930:	f0 ff c1 eb 	ld      r30,-16(r1)
    10001934:	20 00 80 4e 	blr
    10001938:	00 00 00 00 	.long 0x0
    1000193c:	00 00 00 01 	.long 0x1000000
    10001940:	80 02 00 00 	.long 0x280
    10001944:	00 00 00 60 	nop
    10001948:	00 00 00 60 	nop
    1000194c:	00 00 42 60 	ori     r2,r2,0

0000000010001950 <pivot>:
    10001950:	02 10 40 3c 	lis     r2,4098
    10001954:	00 7f 42 38 	addi    r2,r2,32512
    10001958:	a6 02 08 7c 	mflr    r0
    1000195c:	d0 ff 41 fb 	std     r26,-48(r1)
    10001960:	d8 ff 61 fb 	std     r27,-40(r1)
    10001964:	78 1b 7a 7c 	mr      r26,r3
    10001968:	e0 ff 81 fb 	std     r28,-32(r1)
    1000196c:	e8 ff a1 fb 	std     r29,-24(r1)
    10001970:	fe ff 62 3c 	addis   r3,r2,-2
    10001974:	78 23 9d 7c 	mr      r29,r4
    10001978:	f0 ff c1 fb 	std     r30,-16(r1)
    1000197c:	f8 ff e1 fb 	std     r31,-8(r1)
    10001980:	08 b0 63 38 	addi    r3,r3,-20472
    10001984:	78 2b bf 7c 	mr      r31,r5
    10001988:	24 1f bc 7b 	rldicr  r28,r29,3,60
    1000198c:	10 00 01 f8 	std     r0,16(r1)
    10001990:	71 ff 21 f8 	stdu    r1,-144(r1)
    10001994:	2d ed ff 4b 	bl      100006c0 <00000036.plt_call.printf@@GLIBC_2.17>
    10001998:	18 00 41 e8 	ld      r2,24(r1)
    1000199c:	06 00 7a e9 	lwa     r11,4(r26)
    100019a0:	28 00 fa e8 	ld      r7,40(r26)
    100019a4:	18 00 9a e8 	ld      r4,24(r26)
    100019a8:	24 1f e0 7b 	rldicr  r0,r31,3,60
    100019ac:	10 00 7a eb 	ld      r27,16(r26)
    100019b0:	02 00 da e8 	lwa     r6,0(r26)
    100019b4:	30 00 9a c9 	lfd     f12,48(r26)
    100019b8:	08 00 5a e9 	ld      r10,8(r26)
    100019bc:	64 17 e8 7b 	rldicr  r8,r31,2,61
    100019c0:	ae 04 07 7c 	lfdx    f0,r7,r0
    100019c4:	ae e4 44 7d 	lfdx    f10,r4,r28
    100019c8:	2a e0 db 7f 	ldx     r30,r27,r28
    100019cc:	14 5a 3d 7d 	add     r9,r29,r11
    100019d0:	00 00 8b 2e 	cmpwi   cr5,r11,0
    100019d4:	aa 42 aa 7c 	lwax    r5,r10,r8
    100019d8:	b4 07 29 7d 	extsw   r9,r9
    100019dc:	14 02 87 7d 	add     r12,r7,r0
    100019e0:	64 17 29 79 	rldicr  r9,r9,2,61
    100019e4:	ae 04 7e 7d 	lfdx    f11,r30,r0
    100019e8:	aa 4a 6a 7c 	lwax    r3,r10,r9
    100019ec:	b2 02 00 fc 	fmul    f0,f0,f10
    100019f0:	2e 41 6a 7c 	stwx    r3,r10,r8
    100019f4:	2e 49 aa 7c 	stwx    r5,r10,r9
    100019f8:	14 e2 64 7c 	add     r3,r4,r28
    100019fc:	14 02 be 7c 	add     r5,r30,r0
    10001a00:	24 58 00 fc 	fdiv    f0,f0,f11
    10001a04:	2a 00 0c fc 	fadd    f0,f12,f0
    10001a08:	30 00 1a d8 	stfd    f0,48(r26)
    10001a0c:	ae 04 07 7c 	lfdx    f0,r7,r0
    10001a10:	ae 04 7e 7d 	lfdx    f11,r30,r0
    10001a14:	48 00 95 40 	ble     cr5,10001a5c <pivot+0x10c>
    10001a18:	00 00 20 39 	li      r9,0
    10001a1c:	00 00 40 39 	li      r10,0
    10001a20:	00 50 1f 7c 	cmpw    r31,r10
    10001a24:	01 00 0a 39 	addi    r8,r10,1
    10001a28:	00 58 88 7f 	cmpw    cr7,r8,r11
    10001a2c:	44 02 82 41 	beq     10001c70 <pivot+0x320>
    10001a30:	ae 4c 5e 7d 	lfdx    f10,r30,r9
    10001a34:	ae 4c 87 7d 	lfdx    f12,r7,r9
    10001a38:	b4 07 0a 7d 	extsw   r10,r8
    10001a3c:	b2 02 00 fc 	fmul    f0,f0,f10
    10001a40:	24 58 00 fc 	fdiv    f0,f0,f11
    10001a44:	28 00 0c fc 	fsub    f0,f12,f0
    10001a48:	ae 4d 07 7c 	stfdx   f0,r7,r9
    10001a4c:	08 00 29 39 	addi    r9,r9,8
    10001a50:	00 00 0c c8 	lfd     f0,0(r12)
    10001a54:	00 00 65 c9 	lfd     f11,0(r5)
    10001a58:	c8 ff 9e 40 	bne     cr7,10001a20 <pivot+0xd0>
    10001a5c:	50 00 00 fc 	fneg    f0,f0
    10001a60:	00 00 06 2c 	cmpwi   r6,0
    10001a64:	24 58 00 fc 	fdiv    f0,f0,f11
    10001a68:	ae 05 07 7c 	stfdx   f0,r7,r0
    10001a6c:	ae 04 7e 7d 	lfdx    f11,r30,r0
    10001a70:	20 01 81 40 	ble     10001b90 <pivot+0x240>
    10001a74:	00 00 20 39 	li      r9,0
    10001a78:	00 00 40 39 	li      r10,0
    10001a7c:	00 00 42 60 	ori     r2,r2,0
    10001a80:	00 50 1d 7c 	cmpw    r29,r10
    10001a84:	01 00 0a 39 	addi    r8,r10,1
    10001a88:	00 30 88 7f 	cmpw    cr7,r8,r6
    10001a8c:	04 02 82 41 	beq     10001c90 <pivot+0x340>
    10001a90:	2a 48 fb 7c 	ldx     r7,r27,r9
    10001a94:	00 00 43 c9 	lfd     f10,0(r3)
    10001a98:	ae 4c 84 7d 	lfdx    f12,r4,r9
    10001a9c:	b4 07 0a 7d 	extsw   r10,r8
    10001aa0:	ae 04 07 7c 	lfdx    f0,r7,r0
    10001aa4:	b2 02 00 fc 	fmul    f0,f0,f10
    10001aa8:	24 58 00 fc 	fdiv    f0,f0,f11
    10001aac:	28 00 0c fc 	fsub    f0,f12,f0
    10001ab0:	ae 4d 04 7c 	stfdx   f0,r4,r9
    10001ab4:	08 00 29 39 	addi    r9,r9,8
    10001ab8:	00 00 65 c9 	lfd     f11,0(r5)
    10001abc:	c4 ff 9e 40 	bne     cr7,10001a80 <pivot+0x130>
    10001ac0:	78 db 6c 7f 	mr      r12,r27
    10001ac4:	00 00 60 38 	li      r3,0
    10001ac8:	00 00 00 60 	nop
    10001acc:	00 00 42 60 	ori     r2,r2,0
    10001ad0:	00 18 1d 7c 	cmpw    r29,r3
    10001ad4:	5c 00 82 41 	beq     10001b30 <pivot+0x1e0>
    10001ad8:	58 00 95 40 	ble     cr5,10001b30 <pivot+0x1e0>
    10001adc:	00 00 20 39 	li      r9,0
    10001ae0:	00 00 40 39 	li      r10,0
    10001ae4:	00 00 00 60 	nop
    10001ae8:	00 00 00 60 	nop
    10001aec:	00 00 42 60 	ori     r2,r2,0
    10001af0:	00 50 1f 7c 	cmpw    r31,r10
    10001af4:	01 00 ea 38 	addi    r7,r10,1
    10001af8:	00 58 87 7f 	cmpw    cr7,r7,r11
    10001afc:	24 01 82 41 	beq     10001c20 <pivot+0x2d0>
    10001b00:	00 00 0c e9 	ld      r8,0(r12)
    10001b04:	ae 4c 5e 7d 	lfdx    f10,r30,r9
    10001b08:	b4 07 ea 7c 	extsw   r10,r7
    10001b0c:	ae 04 08 7c 	lfdx    f0,r8,r0
    10001b10:	ae 4c 88 7d 	lfdx    f12,r8,r9
    10001b14:	b2 02 00 fc 	fmul    f0,f0,f10
    10001b18:	24 58 00 fc 	fdiv    f0,f0,f11
    10001b1c:	28 00 0c fc 	fsub    f0,f12,f0
    10001b20:	ae 4d 08 7c 	stfdx   f0,r8,r9
    10001b24:	08 00 29 39 	addi    r9,r9,8
    10001b28:	00 00 65 c9 	lfd     f11,0(r5)
    10001b2c:	c4 ff 9e 40 	bne     cr7,10001af0 <pivot+0x1a0>
    10001b30:	01 00 63 38 	addi    r3,r3,1
    10001b34:	08 00 8c 39 	addi    r12,r12,8
    10001b38:	00 18 06 7c 	cmpw    r6,r3
    10001b3c:	b4 07 63 7c 	extsw   r3,r3
    10001b40:	90 ff 82 40 	bne     10001ad0 <pivot+0x180>
    10001b44:	00 00 06 2c 	cmpwi   r6,0
    10001b48:	ff ff 26 39 	addi    r9,r6,-1
    10001b4c:	20 00 29 79 	clrldi  r9,r9,32
    10001b50:	00 00 40 39 	li      r10,0
    10001b54:	01 00 29 39 	addi    r9,r9,1
    10001b58:	bc 00 81 40 	ble     10001c14 <pivot+0x2c4>
    10001b5c:	00 50 1d 7c 	cmpw    r29,r10
    10001b60:	24 1f 48 79 	rldicr  r8,r10,3,60
    10001b64:	01 00 4a 39 	addi    r10,r10,1
    10001b68:	1c 00 82 41 	beq     10001b84 <pivot+0x234>
    10001b6c:	2a 40 1b 7d 	ldx     r8,r27,r8
    10001b70:	ae 04 08 7c 	lfdx    f0,r8,r0
    10001b74:	50 00 00 fc 	fneg    f0,f0
    10001b78:	24 58 00 fc 	fdiv    f0,f0,f11
    10001b7c:	ae 05 08 7c 	stfdx   f0,r8,r0
    10001b80:	00 00 65 c9 	lfd     f11,0(r5)
    10001b84:	01 00 29 2c 	cmpdi   r9,1
    10001b88:	ff ff 29 39 	addi    r9,r9,-1
    10001b8c:	d0 ff 82 40 	bne     10001b5c <pivot+0x20c>
    10001b90:	3c 00 95 40 	ble     cr5,10001bcc <pivot+0x27c>
    10001b94:	78 f3 ca 7f 	mr      r10,r30
    10001b98:	00 00 20 39 	li      r9,0
    10001b9c:	00 00 42 60 	ori     r2,r2,0
    10001ba0:	00 48 1f 7c 	cmpw    r31,r9
    10001ba4:	01 00 09 39 	addi    r8,r9,1
    10001ba8:	00 58 88 7f 	cmpw    cr7,r8,r11
    10001bac:	a4 00 82 41 	beq     10001c50 <pivot+0x300>
    10001bb0:	00 00 0a c8 	lfd     f0,0(r10)
    10001bb4:	b4 07 09 7d 	extsw   r9,r8
    10001bb8:	08 00 4a 39 	addi    r10,r10,8
    10001bbc:	24 58 00 fc 	fdiv    f0,f0,f11
    10001bc0:	f8 ff 0a d8 	stfd    f0,-8(r10)
    10001bc4:	00 00 65 c9 	lfd     f11,0(r5)
    10001bc8:	d8 ff 9e 40 	bne     cr7,10001ba0 <pivot+0x250>
    10001bcc:	ae e4 84 7d 	lfdx    f12,r4,r28
    10001bd0:	fe ff 22 3d 	addis   r9,r2,-2
    10001bd4:	90 00 21 38 	addi    r1,r1,144
    10001bd8:	d8 b0 09 c8 	lfd     f0,-20264(r9)
    10001bdc:	d0 ff 41 eb 	ld      r26,-48(r1)
    10001be0:	d8 ff 61 eb 	ld      r27,-40(r1)
    10001be4:	e8 ff a1 eb 	ld      r29,-24(r1)
    10001be8:	f8 ff e1 eb 	ld      r31,-8(r1)
    10001bec:	24 58 6c fd 	fdiv    f11,f12,f11
    10001bf0:	ae e5 64 7d 	stfdx   f11,r4,r28
    10001bf4:	e0 ff 81 eb 	ld      r28,-32(r1)
    10001bf8:	ae 04 9e 7d 	lfdx    f12,r30,r0
    10001bfc:	24 60 00 fc 	fdiv    f0,f0,f12
    10001c00:	ae 05 1e 7c 	stfdx   f0,r30,r0
    10001c04:	10 00 01 e8 	ld      r0,16(r1)
    10001c08:	f0 ff c1 eb 	ld      r30,-16(r1)
    10001c0c:	a6 03 08 7c 	mtlr    r0
    10001c10:	20 00 80 4e 	blr
    10001c14:	01 00 20 39 	li      r9,1
    10001c18:	44 ff ff 4b 	b       10001b5c <pivot+0x20c>
    10001c1c:	00 00 42 60 	ori     r2,r2,0
    10001c20:	01 00 4a 39 	addi    r10,r10,1
    10001c24:	08 00 29 39 	addi    r9,r9,8
    10001c28:	00 50 0b 7c 	cmpw    r11,r10
    10001c2c:	b4 07 4a 7d 	extsw   r10,r10
    10001c30:	c0 fe 82 40 	bne     10001af0 <pivot+0x1a0>
    10001c34:	01 00 63 38 	addi    r3,r3,1
    10001c38:	08 00 8c 39 	addi    r12,r12,8
    10001c3c:	00 18 06 7c 	cmpw    r6,r3
    10001c40:	b4 07 63 7c 	extsw   r3,r3
    10001c44:	8c fe 82 40 	bne     10001ad0 <pivot+0x180>
    10001c48:	fc fe ff 4b 	b       10001b44 <pivot+0x1f4>
    10001c4c:	00 00 42 60 	ori     r2,r2,0
    10001c50:	01 00 29 39 	addi    r9,r9,1
    10001c54:	08 00 4a 39 	addi    r10,r10,8
    10001c58:	00 48 0b 7c 	cmpw    r11,r9
    10001c5c:	b4 07 29 7d 	extsw   r9,r9
    10001c60:	40 ff 82 40 	bne     10001ba0 <pivot+0x250>
    10001c64:	68 ff ff 4b 	b       10001bcc <pivot+0x27c>
    10001c68:	00 00 00 60 	nop
    10001c6c:	00 00 42 60 	ori     r2,r2,0
    10001c70:	01 00 4a 39 	addi    r10,r10,1
    10001c74:	08 00 29 39 	addi    r9,r9,8
    10001c78:	00 50 0b 7c 	cmpw    r11,r10
    10001c7c:	b4 07 4a 7d 	extsw   r10,r10
    10001c80:	a0 fd 82 40 	bne     10001a20 <pivot+0xd0>
    10001c84:	d8 fd ff 4b 	b       10001a5c <pivot+0x10c>
    10001c88:	00 00 00 60 	nop
    10001c8c:	00 00 42 60 	ori     r2,r2,0
    10001c90:	01 00 4a 39 	addi    r10,r10,1
    10001c94:	08 00 29 39 	addi    r9,r9,8
    10001c98:	00 50 06 7c 	cmpw    r6,r10
    10001c9c:	b4 07 4a 7d 	extsw   r10,r10
    10001ca0:	e0 fd 82 40 	bne     10001a80 <pivot+0x130>
    10001ca4:	1c fe ff 4b 	b       10001ac0 <pivot+0x170>
    10001ca8:	00 00 00 00 	.long 0x0
    10001cac:	00 00 00 01 	.long 0x1000000
    10001cb0:	80 06 00 00 	.long 0x680
    10001cb4:	00 00 00 60 	nop
    10001cb8:	00 00 00 60 	nop
    10001cbc:	00 00 42 60 	ori     r2,r2,0

0000000010001cc0 <prepare>:
    10001cc0:	02 10 40 3c 	lis     r2,4098
    10001cc4:	00 7f 42 38 	addi    r2,r2,32512
    10001cc8:	a6 02 08 7c 	mflr    r0
    10001ccc:	d8 ff 61 fb 	std     r27,-40(r1)
    10001cd0:	e8 ff a1 fb 	std     r29,-24(r1)
    10001cd4:	c8 ff 21 fb 	std     r25,-56(r1)
    10001cd8:	c0 ff 01 fb 	std     r24,-64(r1)
    10001cdc:	e0 ff 81 fb 	std     r28,-32(r1)
    10001ce0:	f0 ff c1 fb 	std     r30,-16(r1)
    10001ce4:	78 23 9c 7c 	mr      r28,r4
    10001ce8:	78 1b 7e 7c 	mr      r30,r3
    10001cec:	b8 ff e1 fa 	std     r23,-72(r1)
    10001cf0:	d0 ff 41 fb 	std     r26,-48(r1)
    10001cf4:	f8 ff e1 fb 	std     r31,-8(r1)
    10001cf8:	10 00 01 f8 	std     r0,16(r1)
    10001cfc:	91 ff 21 f8 	stdu    r1,-112(r1)
    10001d00:	06 00 63 eb 	lwa     r27,4(r3)
    10001d04:	08 00 03 eb 	ld      r24,8(r3)
    10001d08:	02 00 a3 eb 	lwa     r29,0(r3)
    10001d0c:	14 da 3d 7f 	add     r25,r29,r27
    10001d10:	00 c8 1b 7c 	cmpw    r27,r25
    10001d14:	40 00 80 40 	bge     10001d54 <prepare+0x94>
    10001d18:	ff ff bd 38 	addi    r5,r29,-1
    10001d1c:	b4 07 23 7f 	extsw   r3,r25
    10001d20:	20 00 a5 78 	clrldi  r5,r5,32
    10001d24:	64 17 69 78 	rldicr  r9,r3,2,61
    10001d28:	d0 00 65 7c 	neg     r3,r5
    10001d2c:	fc ff 89 38 	addi    r4,r9,-4
    10001d30:	64 17 63 78 	rldicr  r3,r3,2,61
    10001d34:	01 00 a5 38 	addi    r5,r5,1
    10001d38:	14 1a 84 7c 	add     r4,r4,r3
    10001d3c:	14 4a 63 7c 	add     r3,r3,r9
    10001d40:	64 17 a5 78 	rldicr  r5,r5,2,61
    10001d44:	14 22 98 7c 	add     r4,r24,r4
    10001d48:	14 1a 78 7c 	add     r3,r24,r3
    10001d4c:	b5 e9 ff 4b 	bl      10000700 <00000036.plt_call.memmove@@GLIBC_2.17>
    10001d50:	18 00 41 e8 	ld      r2,24(r1)
    10001d54:	00 00 1d 2c 	cmpwi   r29,0
    10001d58:	01 00 5b 3b 	addi    r26,r27,1
    10001d5c:	b4 07 57 7f 	extsw   r23,r26
    10001d60:	64 17 69 7b 	rldicr  r9,r27,2,61
    10001d64:	24 1f ff 7a 	rldicr  r31,r23,3,60
    10001d68:	2e 49 38 7f 	stwx    r25,r24,r9
    10001d6c:	f8 ff ff 3b 	addi    r31,r31,-8
    10001d70:	30 00 81 40 	ble     10001da0 <prepare+0xe0>
    10001d74:	fe ff 22 3d 	addis   r9,r2,-2
    10001d78:	ff ff 1d 39 	addi    r8,r29,-1
    10001d7c:	48 1f 08 79 	rldic   r8,r8,3,29
    10001d80:	d0 b0 09 c8 	lfd     f0,-20272(r9)
    10001d84:	10 00 3e e9 	ld      r9,16(r30)
    10001d88:	14 42 09 7d 	add     r8,r9,r8
    10001d8c:	f8 ff 29 39 	addi    r9,r9,-8
    10001d90:	09 00 49 e9 	ldu     r10,8(r9)
    10001d94:	40 40 29 7c 	cmpld   r9,r8
    10001d98:	ae fd 0a 7c 	stfdx   f0,r10,r31
    10001d9c:	f4 ff 82 40 	bne     10001d90 <prepare+0xd0>
    10001da0:	14 d2 7d 7c 	add     r3,r29,r26
    10001da4:	b4 07 63 7c 	extsw   r3,r3
    10001da8:	91 ee ff 4b 	bl      10000c38 <make_vector+0x8>
    10001dac:	78 1b 69 7c 	mr      r9,r3
    10001db0:	78 bb e3 7e 	mr      r3,r23
    10001db4:	20 00 3e f9 	std     r9,32(r30)
    10001db8:	81 ee ff 4b 	bl      10000c38 <make_vector+0x8>
    10001dbc:	70 00 21 38 	addi    r1,r1,112
    10001dc0:	fe ff 22 3d 	addis   r9,r2,-2
    10001dc4:	04 00 5e 93 	stw     r26,4(r30)
    10001dc8:	78 db 65 7f 	mr      r5,r27
    10001dcc:	78 e3 84 7f 	mr      r4,r28
    10001dd0:	d0 b0 09 c8 	lfd     f0,-20272(r9)
    10001dd4:	10 00 01 e8 	ld      r0,16(r1)
    10001dd8:	78 1b 69 7c 	mr      r9,r3
    10001ddc:	b8 ff e1 ea 	ld      r23,-72(r1)
    10001de0:	78 f3 c3 7f 	mr      r3,r30
    10001de4:	c0 ff 01 eb 	ld      r24,-64(r1)
    10001de8:	c8 ff 21 eb 	ld      r25,-56(r1)
    10001dec:	d0 ff 41 eb 	ld      r26,-48(r1)
    10001df0:	d8 ff 61 eb 	ld      r27,-40(r1)
    10001df4:	e0 ff 81 eb 	ld      r28,-32(r1)
    10001df8:	28 00 3e f9 	std     r9,40(r30)
    10001dfc:	e8 ff a1 eb 	ld      r29,-24(r1)
    10001e00:	f0 ff c1 eb 	ld      r30,-16(r1)
    10001e04:	a6 03 08 7c 	mtlr    r0
    10001e08:	ae fd 09 7c 	stfdx   f0,r9,r31
    10001e0c:	f8 ff e1 eb 	ld      r31,-8(r1)
    10001e10:	48 fb ff 4b 	b       10001958 <pivot+0x8>
    10001e14:	00 00 00 00 	.long 0x0
    10001e18:	00 00 00 01 	.long 0x1000000
    10001e1c:	80 09 00 00 	.long 0x980

0000000010001e20 <add_last>:
    10001e20:	02 10 40 3c 	lis     r2,4098
    10001e24:	00 7f 42 38 	addi    r2,r2,32512
    10001e28:	a6 02 08 7c 	mflr    r0
    10001e2c:	f0 ff c1 fb 	std     r30,-16(r1)
    10001e30:	f8 ff e1 fb 	std     r31,-8(r1)
    10001e34:	78 23 9e 7c 	mr      r30,r4
    10001e38:	10 00 01 f8 	std     r0,16(r1)
    10001e3c:	d1 ff 21 f8 	stdu    r1,-48(r1)
    10001e40:	78 1b 7f 7c 	mr      r31,r3
    10001e44:	08 00 63 e8 	ld      r3,8(r3)
    10001e48:	00 00 23 2c 	cmpdi   r3,0
    10001e4c:	f4 ff 82 40 	bne     10001e40 <add_last+0x20>
    10001e50:	10 00 60 38 	li      r3,16
    10001e54:	0d e9 ff 4b 	bl      10000760 <00000036.plt_call.malloc@@GLIBC_2.17>
    10001e58:	18 00 41 e8 	ld      r2,24(r1)
    10001e5c:	30 00 21 38 	addi    r1,r1,48
    10001e60:	10 00 01 e8 	ld      r0,16(r1)
    10001e64:	08 00 7f f8 	std     r3,8(r31)
    10001e68:	f8 ff e1 eb 	ld      r31,-8(r1)
    10001e6c:	00 00 c3 fb 	std     r30,0(r3)
    10001e70:	f0 ff c1 eb 	ld      r30,-16(r1)
    10001e74:	a6 03 08 7c 	mtlr    r0
    10001e78:	20 00 80 4e 	blr
    10001e7c:	00 00 00 00 	.long 0x0
    10001e80:	00 00 00 01 	.long 0x1000000
    10001e84:	80 02 00 00 	.long 0x280
    10001e88:	00 00 00 60 	nop
    10001e8c:	00 00 42 60 	ori     r2,r2,0

0000000010001e90 <xsimplex>:
    10001e90:	02 10 40 3c 	lis     r2,4098
    10001e94:	00 7f 42 38 	addi    r2,r2,32512
    10001e98:	a6 02 08 7c 	mflr    r0
    10001e9c:	d0 ff 41 fb 	std     r26,-48(r1)
    10001ea0:	d8 ff 61 fb 	std     r27,-40(r1)
    10001ea4:	78 33 da 7c 	mr      r26,r6
    10001ea8:	26 00 80 7d 	mfcr    r12
    10001eac:	e0 ff 81 fb 	std     r28,-32(r1)
    10001eb0:	e8 ff a1 fb 	std     r29,-24(r1)
    10001eb4:	78 43 1c 7d 	mr      r28,r8
    10001eb8:	78 23 9d 7c 	mr      r29,r4
    10001ebc:	f0 ff c1 fb 	std     r30,-16(r1)
    10001ec0:	f8 ff e1 fb 	std     r31,-8(r1)
    10001ec4:	78 3b e8 7c 	mr      r8,r7
    10001ec8:	78 1b 7e 7c 	mr      r30,r3
    10001ecc:	78 33 c7 7c 	mr      r7,r6
    10001ed0:	78 2b bf 7c 	mr      r31,r5
    10001ed4:	10 00 01 f8 	std     r0,16(r1)
    10001ed8:	78 2b a6 7c 	mr      r6,r5
    10001edc:	78 e3 89 7f 	mr      r9,r28
    10001ee0:	08 00 81 91 	stw     r12,8(r1)
    10001ee4:	21 ff 21 f8 	stdu    r1,-224(r1)
    10001ee8:	78 23 85 7c 	mr      r5,r4
    10001eec:	78 1b 64 7c 	mr      r4,r3
    10001ef0:	42 01 61 eb 	lwa     r27,320(r1)
    10001ef4:	60 00 41 f9 	std     r10,96(r1)
    10001ef8:	70 00 61 38 	addi    r3,r1,112
    10001efc:	0d 03 00 48 	bl      10002208 <initial+0x8>
    10001f00:	00 00 23 2c 	cmpdi   r3,0
    10001f04:	a0 02 82 41 	beq     100021a4 <xsimplex+0x314>
    10001f08:	ff ff 20 39 	li      r9,-1
    10001f0c:	70 00 61 38 	addi    r3,r1,112
    10001f10:	ff ff 09 2e 	cmpwi   cr4,r9,-1
    10001f14:	65 ed ff 4b 	bl      10000c78 <select_nonbasic+0x8>
    10001f18:	00 00 9e 2d 	cmpwi   cr3,r30,0
    10001f1c:	00 00 03 2c 	cmpwi   r3,0
    10001f20:	78 1b 65 7c 	mr      r5,r3
    10001f24:	b4 00 80 41 	blt     10001fd8 <xsimplex+0x148>
    10001f28:	00 00 00 60 	nop
    10001f2c:	00 00 42 60 	ori     r2,r2,0
    10001f30:	70 01 8d 40 	ble     cr3,100020a0 <xsimplex+0x210>
    10001f34:	00 00 90 4f 	mcrf    cr7,cr4
    10001f38:	00 00 1e 2c 	cmpwi   r30,0
    10001f3c:	ff ff 3e 39 	addi    r9,r30,-1
    10001f40:	fe ff 42 3d 	addis   r10,r2,-2
    10001f44:	20 00 29 79 	clrldi  r9,r9,32
    10001f48:	01 00 29 39 	addi    r9,r9,1
    10001f4c:	24 1f ab 78 	rldicr  r11,r5,3,60
    10001f50:	a6 03 29 7d 	mtctr   r9
    10001f54:	a8 b0 4a c9 	lfd     f10,-20312(r10)
    10001f58:	00 00 20 39 	li      r9,0
    10001f5c:	f8 ff 5f 39 	addi    r10,r31,-8
    10001f60:	ff ff 80 38 	li      r4,-1
    10001f64:	24 01 81 40 	ble     10002088 <xsimplex+0x1f8>
    10001f68:	09 00 ea e8 	ldu     r7,8(r10)
    10001f6c:	b4 07 20 7d 	extsw   r0,r9
    10001f70:	ae 5c 07 7c 	lfdx    f0,r7,r11
    10001f74:	00 50 00 fc 	fcmpu   cr0,f0,f10
    10001f78:	38 00 81 40 	ble     10001fb0 <xsimplex+0x120>
    10001f7c:	24 1f 87 78 	rldicr  r7,r4,3,60
    10001f80:	24 1f 28 79 	rldicr  r8,r9,3,60
    10001f84:	24 00 9e 41 	beq     cr7,10001fa8 <xsimplex+0x118>
    10001f88:	2a 38 df 7c 	ldx     r6,r31,r7
    10001f8c:	ae 44 9a 7d 	lfdx    f12,r26,r8
    10001f90:	ae 3c 7a 7d 	lfdx    f11,r26,r7
    10001f94:	ae 5c 26 7d 	lfdx    f9,r6,r11
    10001f98:	24 00 0c fc 	fdiv    f0,f12,f0
    10001f9c:	24 48 8b fd 	fdiv    f12,f11,f9
    10001fa0:	00 60 00 fc 	fcmpu   cr0,f0,f12
    10001fa4:	0c 00 80 40 	bge     10001fb0 <xsimplex+0x120>
    10001fa8:	ff ff 80 2f 	cmpwi   cr7,r0,-1
    10001fac:	78 03 04 7c 	mr      r4,r0
    10001fb0:	01 00 29 39 	addi    r9,r9,1
    10001fb4:	b4 ff 00 42 	bdnz    10001f68 <xsimplex+0xd8>
    10001fb8:	e8 00 9e 41 	beq     cr7,100020a0 <xsimplex+0x210>
    10001fbc:	70 00 61 38 	addi    r3,r1,112
    10001fc0:	99 f9 ff 4b 	bl      10001958 <pivot+0x8>
    10001fc4:	70 00 61 38 	addi    r3,r1,112
    10001fc8:	b1 ec ff 4b 	bl      10000c78 <select_nonbasic+0x8>
    10001fcc:	00 00 03 2c 	cmpwi   r3,0
    10001fd0:	78 1b 65 7c 	mr      r5,r3
    10001fd4:	5c ff 80 40 	bge     10001f30 <xsimplex+0xa0>
    10001fd8:	00 00 3b 2c 	cmpdi   r27,0
    10001fdc:	0c 01 82 41 	beq     100020e8 <xsimplex+0x258>
    10001fe0:	00 00 1d 2c 	cmpwi   r29,0
    10001fe4:	20 00 81 40 	ble     10002004 <xsimplex+0x174>
    10001fe8:	ff ff bd 38 	addi    r5,r29,-1
    10001fec:	00 00 80 38 	li      r4,0
    10001ff0:	48 1f a5 78 	rldic   r5,r5,3,29
    10001ff4:	78 e3 83 7f 	mr      r3,r28
    10001ff8:	08 00 a5 38 	addi    r5,r5,8
    10001ffc:	25 e7 ff 4b 	bl      10000720 <00000036.plt_call.memset@@GLIBC_2.17>
    10002000:	18 00 41 e8 	ld      r2,24(r1)
    10002004:	14 ea de 7f 	add     r30,r30,r29
    10002008:	00 f0 1d 7c 	cmpw    r29,r30
    1000200c:	44 00 80 40 	bge     10002050 <xsimplex+0x1c0>
    10002010:	f8 e8 aa 7f 	not     r10,r29
    10002014:	88 00 01 e9 	ld      r8,136(r1)
    10002018:	24 1f bd 7b 	rldicr  r29,r29,3,60
    1000201c:	14 f2 ca 7f 	add     r30,r10,r30
    10002020:	14 ea bc 7f 	add     r29,r28,r29
    10002024:	20 00 de 7b 	clrldi  r30,r30,32
    10002028:	00 00 20 39 	li      r9,0
    1000202c:	01 00 5e 39 	addi    r10,r30,1
    10002030:	a6 03 49 7d 	mtctr   r10
    10002034:	00 00 00 60 	nop
    10002038:	00 00 00 60 	nop
    1000203c:	00 00 42 60 	ori     r2,r2,0
    10002040:	ae 4c 08 7c 	lfdx    f0,r8,r9
    10002044:	ae 4d 1d 7c 	stfdx   f0,r29,r9
    10002048:	08 00 29 39 	addi    r9,r9,8
    1000204c:	f4 ff 00 42 	bdnz    10002040 <xsimplex+0x1b0>
    10002050:	a0 00 21 c8 	lfd     f1,160(r1)
    10002054:	e0 00 21 38 	addi    r1,r1,224
    10002058:	10 00 01 e8 	ld      r0,16(r1)
    1000205c:	08 00 81 81 	lwz     r12,8(r1)
    10002060:	d0 ff 41 eb 	ld      r26,-48(r1)
    10002064:	d8 ff 61 eb 	ld      r27,-40(r1)
    10002068:	e0 ff 81 eb 	ld      r28,-32(r1)
    1000206c:	e8 ff a1 eb 	ld      r29,-24(r1)
    10002070:	f0 ff c1 eb 	ld      r30,-16(r1)
    10002074:	f8 ff e1 eb 	ld      r31,-8(r1)
    10002078:	a6 03 08 7c 	mtlr    r0
    1000207c:	20 01 91 7d 	mtocrf  16,r12
    10002080:	20 81 90 7d 	mtocrf  8,r12
    10002084:	20 00 80 4e 	blr
    10002088:	01 00 00 39 	li      r8,1
    1000208c:	a6 03 09 7d 	mtctr   r8
    10002090:	d8 fe ff 4b 	b       10001f68 <xsimplex+0xd8>
    10002094:	00 00 00 60 	nop
    10002098:	00 00 00 60 	nop
    1000209c:	00 00 42 60 	ori     r2,r2,0
    100020a0:	78 00 61 e8 	ld      r3,120(r1)
    100020a4:	3d e6 ff 4b 	bl      100006e0 <00000036.plt_call.free@@GLIBC_2.17>
    100020a8:	18 00 41 e8 	ld      r2,24(r1)
    100020ac:	e0 00 21 38 	addi    r1,r1,224
    100020b0:	fe ff 22 3d 	addis   r9,r2,-2
    100020b4:	10 00 01 e8 	ld      r0,16(r1)
    100020b8:	08 00 81 81 	lwz     r12,8(r1)
    100020bc:	b8 b0 29 c8 	lfd     f1,-20296(r9)
    100020c0:	d0 ff 41 eb 	ld      r26,-48(r1)
    100020c4:	d8 ff 61 eb 	ld      r27,-40(r1)
    100020c8:	e0 ff 81 eb 	ld      r28,-32(r1)
    100020cc:	e8 ff a1 eb 	ld      r29,-24(r1)
    100020d0:	f0 ff c1 eb 	ld      r30,-16(r1)
    100020d4:	f8 ff e1 eb 	ld      r31,-8(r1)
    100020d8:	a6 03 08 7c 	mtlr    r0
    100020dc:	20 01 91 7d 	mtocrf  16,r12
    100020e0:	20 81 90 7d 	mtocrf  8,r12
    100020e4:	20 00 80 4e 	blr
    100020e8:	00 00 1d 2c 	cmpwi   r29,0
    100020ec:	78 00 61 e8 	ld      r3,120(r1)
    100020f0:	50 00 81 40 	ble     10002140 <xsimplex+0x2b0>
    100020f4:	ff ff 1d 39 	addi    r8,r29,-1
    100020f8:	d0 04 00 f0 	xxlxor  vs0,vs0,vs0
    100020fc:	fc ff 43 39 	addi    r10,r3,-4
    10002100:	88 17 08 79 	rldic   r8,r8,2,30
    10002104:	14 42 03 7d 	add     r8,r3,r8
    10002108:	18 00 00 48 	b       10002120 <xsimplex+0x290>
    1000210c:	00 00 00 60 	nop
    10002110:	00 00 00 60 	nop
    10002114:	00 00 00 60 	nop
    10002118:	00 00 00 60 	nop
    1000211c:	00 00 42 60 	ori     r2,r2,0
    10002120:	06 00 2a e9 	lwa     r9,4(r10)
    10002124:	04 00 4a 39 	addi    r10,r10,4
    10002128:	40 50 28 7c 	cmpld   r8,r10
    1000212c:	00 e8 89 7f 	cmpw    cr7,r9,r29
    10002130:	24 1f 29 79 	rldicr  r9,r9,3,60
    10002134:	08 00 9c 40 	bge     cr7,1000213c <xsimplex+0x2ac>
    10002138:	ae 4d 1c 7c 	stfdx   f0,r28,r9
    1000213c:	e4 ff 82 40 	bne     10002120 <xsimplex+0x290>
    10002140:	00 00 1e 2c 	cmpwi   r30,0
    10002144:	54 00 81 40 	ble     10002198 <xsimplex+0x308>
    10002148:	88 00 e1 e8 	ld      r7,136(r1)
    1000214c:	ff ff 3e 39 	addi    r9,r30,-1
    10002150:	64 17 aa 7b 	rldicr  r10,r29,2,61
    10002154:	20 00 29 79 	clrldi  r9,r9,32
    10002158:	fc ff 4a 39 	addi    r10,r10,-4
    1000215c:	01 00 29 39 	addi    r9,r9,1
    10002160:	14 52 43 7d 	add     r10,r3,r10
    10002164:	a6 03 29 7d 	mtctr   r9
    10002168:	08 00 07 39 	addi    r8,r7,8
    1000216c:	08 00 00 48 	b       10002174 <xsimplex+0x2e4>
    10002170:	08 00 08 39 	addi    r8,r8,8
    10002174:	06 00 2a e9 	lwa     r9,4(r10)
    10002178:	04 00 4a 39 	addi    r10,r10,4
    1000217c:	00 e8 09 7c 	cmpw    r9,r29
    10002180:	24 1f 29 79 	rldicr  r9,r9,3,60
    10002184:	0c 00 80 40 	bge     10002190 <xsimplex+0x300>
    10002188:	00 00 07 c8 	lfd     f0,0(r7)
    1000218c:	ae 4d 1c 7c 	stfdx   f0,r28,r9
    10002190:	78 43 07 7d 	mr      r7,r8
    10002194:	dc ff 00 42 	bdnz    10002170 <xsimplex+0x2e0>
    10002198:	49 e5 ff 4b 	bl      100006e0 <00000036.plt_call.free@@GLIBC_2.17>
    1000219c:	18 00 41 e8 	ld      r2,24(r1)
    100021a0:	b0 fe ff 4b 	b       10002050 <xsimplex+0x1c0>
    100021a4:	78 00 61 e8 	ld      r3,120(r1)
    100021a8:	39 e5 ff 4b 	bl      100006e0 <00000036.plt_call.free@@GLIBC_2.17>
    100021ac:	18 00 41 e8 	ld      r2,24(r1)
    100021b0:	e0 00 21 38 	addi    r1,r1,224
    100021b4:	fe ff 22 3d 	addis   r9,r2,-2
    100021b8:	10 00 01 e8 	ld      r0,16(r1)
    100021bc:	08 00 81 81 	lwz     r12,8(r1)
    100021c0:	e0 b0 29 c8 	lfd     f1,-20256(r9)
    100021c4:	d0 ff 41 eb 	ld      r26,-48(r1)
    100021c8:	d8 ff 61 eb 	ld      r27,-40(r1)
    100021cc:	e0 ff 81 eb 	ld      r28,-32(r1)
    100021d0:	e8 ff a1 eb 	ld      r29,-24(r1)
    100021d4:	f0 ff c1 eb 	ld      r30,-16(r1)
    100021d8:	f8 ff e1 eb 	ld      r31,-8(r1)
    100021dc:	a6 03 08 7c 	mtlr    r0
    100021e0:	20 01 91 7d 	mtocrf  16,r12
    100021e4:	20 81 90 7d 	mtocrf  8,r12
    100021e8:	20 00 80 4e 	blr
    100021ec:	00 00 00 00 	.long 0x0
    100021f0:	00 00 00 03 	.long 0x3000000
    100021f4:	80 06 00 00 	.long 0x680
    100021f8:	00 00 00 60 	nop
    100021fc:	00 00 42 60 	ori     r2,r2,0

0000000010002200 <initial>:
    10002200:	02 10 40 3c 	lis     r2,4098
    10002204:	00 7f 42 38 	addi    r2,r2,32512
    10002208:	a6 02 08 7c 	mflr    r0
    1000220c:	f8 ff e1 db 	stfd    f31,-8(r1)
    10002210:	d0 ff 61 fb 	std     r27,-48(r1)
    10002214:	90 08 e0 ff 	fmr     f31,f1
    10002218:	78 43 1b 7d 	mr      r27,r8
    1000221c:	e8 ff c1 fb 	std     r30,-24(r1)
    10002220:	f0 ff e1 fb 	std     r31,-16(r1)
    10002224:	78 1b 7e 7c 	mr      r30,r3
    10002228:	78 23 9f 7c 	mr      r31,r4
    1000222c:	10 00 01 f8 	std     r0,16(r1)
    10002230:	41 ff 21 f8 	stdu    r1,-192(r1)
    10002234:	20 01 41 e9 	ld      r10,288(r1)
    10002238:	60 00 41 f9 	std     r10,96(r1)
    1000223c:	bd ea ff 4b 	bl      10000cf8 <init+0x8>
    10002240:	18 00 5e e9 	ld      r10,24(r30)
    10002244:	d0 0c 21 f0 	xxlxor  vs1,vs1,vs1
    10002248:	24 1f 69 78 	rldicr  r9,r3,3,60
    1000224c:	ae 4c 0a 7c 	lfdx    f0,r10,r9
    10002250:	00 08 00 fc 	fcmpu   cr0,f0,f1
    10002254:	82 13 41 4c 	cror    eq,gt,eq
    10002258:	28 00 82 40 	bne     10002280 <initial+0x80>
    1000225c:	01 00 60 38 	li      r3,1
    10002260:	c0 00 21 38 	addi    r1,r1,192
    10002264:	10 00 01 e8 	ld      r0,16(r1)
    10002268:	f8 ff e1 cb 	lfd     f31,-8(r1)
    1000226c:	d0 ff 61 eb 	ld      r27,-48(r1)
    10002270:	e8 ff c1 eb 	ld      r30,-24(r1)
    10002274:	f0 ff e1 eb 	ld      r31,-16(r1)
    10002278:	a6 03 08 7c 	mtlr    r0
    1000227c:	20 00 80 4e 	blr
    10002280:	78 1b 64 7c 	mr      r4,r3
    10002284:	78 f3 c3 7f 	mr      r3,r30
    10002288:	80 00 21 fb 	std     r25,128(r1)
    1000228c:	88 00 41 fb 	std     r26,136(r1)
    10002290:	70 00 21 d8 	stfd    f1,112(r1)
    10002294:	98 00 81 fb 	std     r28,152(r1)
    10002298:	31 fa ff 4b 	bl      10001cc8 <prepare+0x8>
    1000229c:	06 00 3e eb 	lwa     r25,4(r30)
    100022a0:	01 00 20 39 	li      r9,1
    100022a4:	08 00 5e e9 	ld      r10,8(r30)
    100022a8:	20 00 1e e9 	ld      r8,32(r30)
    100022ac:	28 00 fe e8 	ld      r7,40(r30)
    100022b0:	18 00 de e8 	ld      r6,24(r30)
    100022b4:	10 00 be e8 	ld      r5,16(r30)
    100022b8:	70 00 21 c8 	lfd     f1,112(r1)
    100022bc:	78 fb e3 7f 	mr      r3,r31
    100022c0:	60 00 21 f9 	std     r9,96(r1)
    100022c4:	14 ca 5f 7f 	add     r26,r31,r25
    100022c8:	78 cb 24 7f 	mr      r4,r25
    100022cc:	cd fb ff 4b 	bl      10001e98 <xsimplex+0x8>
    100022d0:	00 00 1a 2c 	cmpwi   r26,0
    100022d4:	b4 07 49 7f 	extsw   r9,r26
    100022d8:	30 00 3e d8 	stfd    f1,48(r30)
    100022dc:	fc 03 81 40 	ble     100026d8 <initial+0x4d8>
    100022e0:	00 00 be 80 	lwz     r5,0(r30)
    100022e4:	04 00 fe 80 	lwz     r7,4(r30)
    100022e8:	00 00 09 2c 	cmpwi   r9,0
    100022ec:	08 00 1e e9 	ld      r8,8(r30)
    100022f0:	ff ff 29 39 	addi    r9,r9,-1
    100022f4:	20 00 29 79 	clrldi  r9,r9,32
    100022f8:	00 00 40 39 	li      r10,0
    100022fc:	01 00 29 39 	addi    r9,r9,1
    10002300:	14 3a a5 7c 	add     r5,r5,r7
    10002304:	fc ff 08 39 	addi    r8,r8,-4
    10002308:	ff ff a5 38 	addi    r5,r5,-1
    1000230c:	b4 07 a5 7c 	extsw   r5,r5
    10002310:	24 00 81 41 	bgt     10002334 <initial+0x134>
    10002314:	dc 00 00 48 	b       100023f0 <initial+0x1f0>
    10002318:	00 00 00 60 	nop
    1000231c:	00 00 42 60 	ori     r2,r2,0
    10002320:	01 00 29 2c 	cmpdi   r9,1
    10002324:	b4 07 dc 7c 	extsw   r28,r6
    10002328:	01 00 4a 39 	addi    r10,r10,1
    1000232c:	ff ff 29 39 	addi    r9,r9,-1
    10002330:	3c 00 82 41 	beq     1000236c <initial+0x16c>
    10002334:	04 00 e8 84 	lwzu    r7,4(r8)
    10002338:	20 00 46 79 	clrldi  r6,r10,32
    1000233c:	01 00 c6 38 	addi    r6,r6,1
    10002340:	b4 07 5c 7d 	extsw   r28,r10
    10002344:	00 28 07 7c 	cmpw    r7,r5
    10002348:	d8 ff 82 40 	bne     10002320 <initial+0x120>
    1000234c:	20 00 7e e8 	ld      r3,32(r30)
    10002350:	24 1f 4a 79 	rldicr  r10,r10,3,60
    10002354:	fe ff 22 3d 	addis   r9,r2,-2
    10002358:	a8 b0 89 c9 	lfd     f12,-20312(r9)
    1000235c:	ae 54 03 7c 	lfdx    f0,r3,r10
    10002360:	10 02 00 fc 	fabs    f0,f0
    10002364:	00 60 00 fc 	fcmpu   cr0,f0,f12
    10002368:	48 03 81 41 	bgt     100026b0 <initial+0x4b0>
    1000236c:	a0 00 a1 fb 	std     r29,160(r1)
    10002370:	00 e0 19 7c 	cmpw    r25,r28
    10002374:	94 00 81 41 	bgt     10002408 <initial+0x208>
    10002378:	00 00 19 2c 	cmpwi   r25,0
    1000237c:	50 e0 99 7c 	subf    r4,r25,r28
    10002380:	b4 07 84 7c 	extsw   r4,r4
    10002384:	74 00 81 40 	ble     100023f8 <initial+0x1f8>
    10002388:	10 00 fe e8 	ld      r7,16(r30)
    1000238c:	24 1f 88 78 	rldicr  r8,r4,3,60
    10002390:	ff ff 59 39 	addi    r10,r25,-1
    10002394:	20 00 4a 79 	clrldi  r10,r10,32
    10002398:	00 00 20 39 	li      r9,0
    1000239c:	01 00 4a 39 	addi    r10,r10,1
    100023a0:	00 00 80 3b 	li      r28,0
    100023a4:	a6 03 49 7d 	mtctr   r10
    100023a8:	2a 40 e7 7c 	ldx     r7,r7,r8
    100023ac:	00 00 47 c9 	lfd     f10,0(r7)
    100023b0:	90 50 60 fd 	fmr     f11,f10
    100023b4:	00 00 00 60 	nop
    100023b8:	00 00 00 60 	nop
    100023bc:	00 00 42 60 	ori     r2,r2,0
    100023c0:	10 5a 00 fc 	fabs    f0,f11
    100023c4:	10 52 80 fd 	fabs    f12,f10
    100023c8:	b4 07 28 7d 	extsw   r8,r9
    100023cc:	01 00 29 39 	addi    r9,r9,1
    100023d0:	24 1f 2a 79 	rldicr  r10,r9,3,60
    100023d4:	00 60 00 fc 	fcmpu   cr0,f0,f12
    100023d8:	0c 00 81 40 	ble     100023e4 <initial+0x1e4>
    100023dc:	90 58 40 fd 	fmr     f10,f11
    100023e0:	78 43 1c 7d 	mr      r28,r8
    100023e4:	18 00 40 42 	bdz     100023fc <initial+0x1fc>
    100023e8:	ae 54 67 7d 	lfdx    f11,r7,r10
    100023ec:	d4 ff ff 4b 	b       100023c0 <initial+0x1c0>
    100023f0:	01 00 20 39 	li      r9,1
    100023f4:	40 ff ff 4b 	b       10002334 <initial+0x134>
    100023f8:	00 00 80 3b 	li      r28,0
    100023fc:	78 e3 85 7f 	mr      r5,r28
    10002400:	78 f3 c3 7f 	mr      r3,r30
    10002404:	55 f5 ff 4b 	bl      10001958 <pivot+0x8>
    10002408:	ff ff b9 3b 	addi    r29,r25,-1
    1000240c:	00 e0 1d 7c 	cmpw    r29,r28
    10002410:	b4 07 bd 7f 	extsw   r29,r29
    10002414:	68 00 81 40 	ble     1000247c <initial+0x27c>
    10002418:	08 00 5e e9 	ld      r10,8(r30)
    1000241c:	64 17 29 7b 	rldicr  r9,r25,2,61
    10002420:	64 17 88 7b 	rldicr  r8,r28,2,61
    10002424:	fc ff 29 39 	addi    r9,r9,-4
    10002428:	00 00 1f 2c 	cmpwi   r31,0
    1000242c:	aa 4a ca 7c 	lwax    r6,r10,r9
    10002430:	aa 42 ea 7c 	lwax    r7,r10,r8
    10002434:	2e 41 ca 7c 	stwx    r6,r10,r8
    10002438:	2e 49 ea 7c 	stwx    r7,r10,r9
    1000243c:	40 00 81 40 	ble     1000247c <initial+0x27c>
    10002440:	10 00 5e e9 	ld      r10,16(r30)
    10002444:	ff ff ff 38 	addi    r7,r31,-1
    10002448:	24 1f 28 7b 	rldicr  r8,r25,3,60
    1000244c:	48 1f e7 78 	rldic   r7,r7,3,29
    10002450:	24 1f 9c 7b 	rldicr  r28,r28,3,60
    10002454:	f8 ff 08 39 	addi    r8,r8,-8
    10002458:	14 3a ea 7c 	add     r7,r10,r7
    1000245c:	f8 ff 4a 39 	addi    r10,r10,-8
    10002460:	09 00 2a e9 	ldu     r9,8(r10)
    10002464:	ae 44 09 7c 	lfdx    f0,r9,r8
    10002468:	ae e4 89 7d 	lfdx    f12,r9,r28
    1000246c:	40 50 27 7c 	cmpld   r7,r10
    10002470:	ae 45 89 7d 	stfdx   f12,r9,r8
    10002474:	ae e5 09 7c 	stfdx   f0,r9,r28
    10002478:	e8 ff 82 40 	bne     10002460 <initial+0x260>
    1000247c:	28 00 7e e8 	ld      r3,40(r30)
    10002480:	61 e2 ff 4b 	bl      100006e0 <00000036.plt_call.free@@GLIBC_2.17>
    10002484:	18 00 41 e8 	ld      r2,24(r1)
    10002488:	00 c8 1a 7c 	cmpw    r26,r25
    1000248c:	28 00 7e fb 	std     r27,40(r30)
    10002490:	30 00 fe db 	stfd    f31,48(r30)
    10002494:	3c 00 81 40 	ble     100024d0 <initial+0x2d0>
    10002498:	ff ff 5f 39 	addi    r10,r31,-1
    1000249c:	08 00 1e e9 	ld      r8,8(r30)
    100024a0:	64 17 a9 7b 	rldicr  r9,r29,2,61
    100024a4:	20 00 4a 79 	clrldi  r10,r10,32
    100024a8:	14 ca 4a 7d 	add     r10,r10,r25
    100024ac:	64 17 4a 79 	rldicr  r10,r10,2,61
    100024b0:	14 4a 28 7d 	add     r9,r8,r9
    100024b4:	14 52 08 7d 	add     r8,r8,r10
    100024b8:	00 00 00 60 	nop
    100024bc:	00 00 42 60 	ori     r2,r2,0
    100024c0:	04 00 49 85 	lwzu    r10,4(r9)
    100024c4:	40 48 28 7c 	cmpld   r8,r9
    100024c8:	fc ff 49 91 	stw     r10,-4(r9)
    100024cc:	f4 ff 82 40 	bne     100024c0 <initial+0x2c0>
    100024d0:	06 00 7e eb 	lwa     r27,4(r30)
    100024d4:	ff ff 5b 3b 	addi    r26,r27,-1
    100024d8:	b4 07 5c 7f 	extsw   r28,r26
    100024dc:	04 00 5e 93 	stw     r26,4(r30)
    100024e0:	78 e3 83 7f 	mr      r3,r28
    100024e4:	55 e7 ff 4b 	bl      10000c38 <make_vector+0x8>
    100024e8:	00 00 1a 2c 	cmpwi   r26,0
    100024ec:	78 1b 7d 7c 	mr      r29,r3
    100024f0:	2c 01 81 40 	ble     1000261c <initial+0x41c>
    100024f4:	ff ff 1b 38 	addi    r0,r27,-1
    100024f8:	08 00 7e e9 	ld      r11,8(r30)
    100024fc:	28 00 7e e8 	ld      r3,40(r30)
    10002500:	fe ff bb 38 	addi    r5,r27,-2
    10002504:	b4 07 00 7c 	extsw   r0,r0
    10002508:	48 1f a5 78 	rldic   r5,r5,3,29
    1000250c:	64 17 0c 78 	rldicr  r12,r0,2,61
    10002510:	00 00 9f 2f 	cmpwi   cr7,r31,0
    10002514:	fc ff 8c 39 	addi    r12,r12,-4
    10002518:	08 00 a5 38 	addi    r5,r5,8
    1000251c:	14 62 8b 7d 	add     r12,r11,r12
    10002520:	78 1b 64 7c 	mr      r4,r3
    10002524:	fc ff 6b 39 	addi    r11,r11,-4
    10002528:	00 00 e0 38 	li      r7,0
    1000252c:	00 00 42 60 	ori     r2,r2,0
    10002530:	00 00 1c 2c 	cmpwi   r28,0
    10002534:	ff ff 3c 39 	addi    r9,r28,-1
    10002538:	20 00 29 79 	clrldi  r9,r9,32
    1000253c:	78 5b 68 7d 	mr      r8,r11
    10002540:	01 00 29 39 	addi    r9,r9,1
    10002544:	00 00 40 39 	li      r10,0
    10002548:	a6 03 29 7d 	mtctr   r9
    1000254c:	1c 01 81 40 	ble     10002668 <initial+0x468>
    10002550:	04 00 28 85 	lwzu    r9,4(r8)
    10002554:	00 38 09 7c 	cmpw    r9,r7
    10002558:	24 01 82 41 	beq     1000267c <initial+0x47c>
    1000255c:	01 00 4a 39 	addi    r10,r10,1
    10002560:	f0 ff 00 42 	bdnz    10002550 <initial+0x350>
    10002564:	44 01 9d 40 	ble     cr7,100026a8 <initial+0x4a8>
    10002568:	ff ff 3f 39 	addi    r9,r31,-1
    1000256c:	78 63 88 7d 	mr      r8,r12
    10002570:	20 00 29 79 	clrldi  r9,r9,32
    10002574:	00 00 40 39 	li      r10,0
    10002578:	01 00 29 39 	addi    r9,r9,1
    1000257c:	a6 03 29 7d 	mtctr   r9
    10002580:	18 00 00 48 	b       10002598 <initial+0x398>
    10002584:	00 00 00 60 	nop
    10002588:	00 00 00 60 	nop
    1000258c:	00 00 42 60 	ori     r2,r2,0
    10002590:	b4 07 ca 7c 	extsw   r10,r6
    10002594:	14 00 40 42 	bdz     100025a8 <initial+0x3a8>
    10002598:	04 00 28 85 	lwzu    r9,4(r8)
    1000259c:	01 00 ca 38 	addi    r6,r10,1
    100025a0:	00 38 09 7c 	cmpw    r9,r7
    100025a4:	ec ff 82 40 	bne     10002590 <initial+0x390>
    100025a8:	24 1f 4a 79 	rldicr  r10,r10,3,60
    100025ac:	18 00 de e8 	ld      r6,24(r30)
    100025b0:	00 00 04 c8 	lfd     f0,0(r4)
    100025b4:	30 00 9e c9 	lfd     f12,48(r30)
    100025b8:	10 00 1e e9 	ld      r8,16(r30)
    100025bc:	00 00 20 39 	li      r9,0
    100025c0:	ae 54 66 7d 	lfdx    f11,r6,r10
    100025c4:	2a 50 48 7d 	ldx     r10,r8,r10
    100025c8:	fa 62 00 fc 	fmadd   f0,f0,f11,f12
    100025cc:	30 00 1e d8 	stfd    f0,48(r30)
    100025d0:	00 00 64 c9 	lfd     f11,0(r4)
    100025d4:	50 58 60 fd 	fneg    f11,f11
    100025d8:	00 00 00 60 	nop
    100025dc:	00 00 42 60 	ori     r2,r2,0
    100025e0:	ae 4c 9d 7d 	lfdx    f12,r29,r9
    100025e4:	ae 4c 0a 7c 	lfdx    f0,r10,r9
    100025e8:	3a 60 0b fc 	fmadd   f0,f11,f0,f12
    100025ec:	ae 4d 1d 7c 	stfdx   f0,r29,r9
    100025f0:	08 00 29 39 	addi    r9,r9,8
    100025f4:	40 48 25 7c 	cmpld   r5,r9
    100025f8:	e8 ff 82 40 	bne     100025e0 <initial+0x3e0>
    100025fc:	01 00 e7 38 	addi    r7,r7,1
    10002600:	08 00 84 38 	addi    r4,r4,8
    10002604:	00 00 07 7c 	cmpw    r7,r0
    10002608:	b4 07 e7 7c 	extsw   r7,r7
    1000260c:	24 ff 82 40 	bne     10002530 <initial+0x330>
    10002610:	78 eb a4 7f 	mr      r4,r29
    10002614:	2d e1 ff 4b 	bl      10000740 <00000036.plt_call.memcpy@@GLIBC_2.17>
    10002618:	18 00 41 e8 	ld      r2,24(r1)
    1000261c:	78 eb a3 7f 	mr      r3,r29
    10002620:	c1 e0 ff 4b 	bl      100006e0 <00000036.plt_call.free@@GLIBC_2.17>
    10002624:	18 00 41 e8 	ld      r2,24(r1)
    10002628:	20 00 7e e8 	ld      r3,32(r30)
    1000262c:	b5 e0 ff 4b 	bl      100006e0 <00000036.plt_call.free@@GLIBC_2.17>
    10002630:	18 00 41 e8 	ld      r2,24(r1)
    10002634:	80 00 21 eb 	ld      r25,128(r1)
    10002638:	88 00 41 eb 	ld      r26,136(r1)
    1000263c:	98 00 81 eb 	ld      r28,152(r1)
    10002640:	a0 00 a1 eb 	ld      r29,160(r1)
    10002644:	c0 00 21 38 	addi    r1,r1,192
    10002648:	01 00 60 38 	li      r3,1
    1000264c:	10 00 01 e8 	ld      r0,16(r1)
    10002650:	f8 ff e1 cb 	lfd     f31,-8(r1)
    10002654:	d0 ff 61 eb 	ld      r27,-48(r1)
    10002658:	e8 ff c1 eb 	ld      r30,-24(r1)
    1000265c:	f0 ff e1 eb 	ld      r31,-16(r1)
    10002660:	a6 03 08 7c 	mtlr    r0
    10002664:	20 00 80 4e 	blr
    10002668:	01 00 20 39 	li      r9,1
    1000266c:	a6 03 29 7d 	mtctr   r9
    10002670:	04 00 28 85 	lwzu    r9,4(r8)
    10002674:	00 38 09 7c 	cmpw    r9,r7
    10002678:	e4 fe 82 40 	bne     1000255c <initial+0x35c>
    1000267c:	24 1f 4a 79 	rldicr  r10,r10,3,60
    10002680:	00 00 84 c9 	lfd     f12,0(r4)
    10002684:	01 00 e7 38 	addi    r7,r7,1
    10002688:	00 00 07 7c 	cmpw    r7,r0
    1000268c:	08 00 84 38 	addi    r4,r4,8
    10002690:	ae 54 1d 7c 	lfdx    f0,r29,r10
    10002694:	b4 07 e7 7c 	extsw   r7,r7
    10002698:	2a 60 00 fc 	fadd    f0,f0,f12
    1000269c:	ae 55 1d 7c 	stfdx   f0,r29,r10
    100026a0:	90 fe 82 40 	bne     10002530 <initial+0x330>
    100026a4:	6c ff ff 4b 	b       10002610 <initial+0x410>
    100026a8:	00 00 40 39 	li      r10,0
    100026ac:	00 ff ff 4b 	b       100025ac <initial+0x3ac>
    100026b0:	31 e0 ff 4b 	bl      100006e0 <00000036.plt_call.free@@GLIBC_2.17>
    100026b4:	18 00 41 e8 	ld      r2,24(r1)
    100026b8:	28 00 7e e8 	ld      r3,40(r30)
    100026bc:	25 e0 ff 4b 	bl      100006e0 <00000036.plt_call.free@@GLIBC_2.17>
    100026c0:	18 00 41 e8 	ld      r2,24(r1)
    100026c4:	80 00 21 eb 	ld      r25,128(r1)
    100026c8:	88 00 41 eb 	ld      r26,136(r1)
    100026cc:	98 00 81 eb 	ld      r28,152(r1)
    100026d0:	00 00 60 38 	li      r3,0
    100026d4:	8c fb ff 4b 	b       10002260 <initial+0x60>
    100026d8:	a0 00 a1 fb 	std     r29,160(r1)
    100026dc:	00 00 80 3b 	li      r28,0
    100026e0:	90 fc ff 4b 	b       10002370 <initial+0x170>
    100026e4:	00 00 00 00 	.long 0x0
    100026e8:	00 00 02 01 	.long 0x1020000
    100026ec:	81 07 00 00 	.long 0x781

00000000100026f0 <simplex>:
    100026f0:	02 10 40 3c 	lis     r2,4098
    100026f4:	00 7f 42 38 	addi    r2,r2,32512
    100026f8:	a6 02 08 7c 	mflr    r0
    100026fc:	00 00 20 39 	li      r9,0
    10002700:	00 00 40 39 	li      r10,0
    10002704:	10 00 01 f8 	std     r0,16(r1)
    10002708:	91 ff 21 f8 	stdu    r1,-112(r1)
    1000270c:	60 00 21 f9 	std     r9,96(r1)
    10002710:	89 f7 ff 4b 	bl      10001e98 <xsimplex+0x8>
    10002714:	70 00 21 38 	addi    r1,r1,112
    10002718:	10 00 01 e8 	ld      r0,16(r1)
    1000271c:	a6 03 08 7c 	mtlr    r0
    10002720:	20 00 80 4e 	blr
    10002724:	00 00 00 00 	.long 0x0
    10002728:	00 00 00 01 	.long 0x1000000
    1000272c:	80 00 00 00 	.long 0x80

0000000010002730 <intopt_print>:
    10002730:	02 10 40 3c 	lis     r2,4098
    10002734:	00 7f 42 38 	addi    r2,r2,32512
    10002738:	a6 02 08 7c 	mflr    r0
    1000273c:	f8 ff e1 fb 	std     r31,-8(r1)
    10002740:	e8 ff a1 fb 	std     r29,-24(r1)
    10002744:	78 1b 7f 7c 	mr      r31,r3
    10002748:	f0 ff c1 fb 	std     r30,-16(r1)
    1000274c:	fe ff 62 3c 	addis   r3,r2,-2
    10002750:	18 b0 63 38 	addi    r3,r3,-20456
    10002754:	10 00 01 f8 	std     r0,16(r1)
    10002758:	41 ff 21 f8 	stdu    r1,-192(r1)
    1000275c:	05 df ff 4b 	bl      10000660 <00000036.plt_call.puts@@GLIBC_2.17>
    10002760:	18 00 41 e8 	ld      r2,24(r1)
    10002764:	04 00 3f 81 	lwz     r9,4(r31)
    10002768:	00 00 09 2c 	cmpwi   r9,0
    1000276c:	4c 00 81 40 	ble     100027b8 <intopt_print+0x88>
    10002770:	fe ff a2 3f 	addis   r29,r2,-2
    10002774:	00 00 c0 3b 	li      r30,0
    10002778:	28 b0 bd 3b 	addi    r29,r29,-20440
    1000277c:	00 00 42 60 	ori     r2,r2,0
    10002780:	28 00 ff e8 	ld      r7,40(r31)
    10002784:	24 1f c8 7b 	rldicr  r8,r30,3,60
    10002788:	08 00 5f e9 	ld      r10,8(r31)
    1000278c:	64 17 c9 7b 	rldicr  r9,r30,2,61
    10002790:	78 eb a3 7f 	mr      r3,r29
    10002794:	01 00 de 3b 	addi    r30,r30,1
    10002798:	aa 4a aa 7c 	lwax    r5,r10,r9
    1000279c:	2a 40 87 7c 	ldx     r4,r7,r8
    100027a0:	66 01 24 7c 	mtvsrd  vs1,r4
    100027a4:	1d df ff 4b 	bl      100006c0 <00000036.plt_call.printf@@GLIBC_2.17>
    100027a8:	18 00 41 e8 	ld      r2,24(r1)
    100027ac:	04 00 3f 81 	lwz     r9,4(r31)
    100027b0:	00 f0 09 7c 	cmpw    r9,r30
    100027b4:	cc ff 81 41 	bgt     10002780 <intopt_print+0x50>
    100027b8:	30 00 9f e8 	ld      r4,48(r31)
    100027bc:	fe ff 62 3c 	addis   r3,r2,-2
    100027c0:	38 b0 63 38 	addi    r3,r3,-20424
    100027c4:	66 01 24 7c 	mtvsrd  vs1,r4
    100027c8:	f9 de ff 4b 	bl      100006c0 <00000036.plt_call.printf@@GLIBC_2.17>
    100027cc:	18 00 41 e8 	ld      r2,24(r1)
    100027d0:	fe ff 62 3c 	addis   r3,r2,-2
    100027d4:	40 b0 63 38 	addi    r3,r3,-20416
    100027d8:	89 de ff 4b 	bl      10000660 <00000036.plt_call.puts@@GLIBC_2.17>
    100027dc:	18 00 41 e8 	ld      r2,24(r1)
    100027e0:	00 00 3f 81 	lwz     r9,0(r31)
    100027e4:	00 00 09 2c 	cmpwi   r9,0
    100027e8:	48 01 81 40 	ble     10002930 <intopt_print+0x200>
    100027ec:	78 00 e1 fa 	std     r23,120(r1)
    100027f0:	80 00 01 fb 	std     r24,128(r1)
    100027f4:	fe ff e2 3e 	addis   r23,r2,-2
    100027f8:	fe ff 02 3f 	addis   r24,r2,-2
    100027fc:	88 00 21 fb 	std     r25,136(r1)
    10002800:	90 00 41 fb 	std     r26,144(r1)
    10002804:	fe ff 22 3f 	addis   r25,r2,-2
    10002808:	fe ff 42 3f 	addis   r26,r2,-2
    1000280c:	98 00 61 fb 	std     r27,152(r1)
    10002810:	fe ff 62 3f 	addis   r27,r2,-2
    10002814:	a0 00 81 fb 	std     r28,160(r1)
    10002818:	50 b0 f7 3a 	addi    r23,r23,-20400
    1000281c:	68 00 a1 fa 	std     r21,104(r1)
    10002820:	70 00 c1 fa 	std     r22,112(r1)
    10002824:	00 00 80 3b 	li      r28,0
    10002828:	58 b0 18 3b 	addi    r24,r24,-20392
    1000282c:	80 b0 39 3b 	addi    r25,r25,-20352
    10002830:	68 b0 7b 3b 	addi    r27,r27,-20376
    10002834:	78 b0 5a 3b 	addi    r26,r26,-20360
    10002838:	24 00 00 48 	b       1000285c <intopt_print+0x12c>
    1000283c:	00 00 42 60 	ori     r2,r2,0
    10002840:	78 cb 23 7f 	mr      r3,r25
    10002844:	01 00 9c 3b 	addi    r28,r28,1
    10002848:	19 de ff 4b 	bl      10000660 <00000036.plt_call.puts@@GLIBC_2.17>
    1000284c:	18 00 41 e8 	ld      r2,24(r1)
    10002850:	00 00 3f 81 	lwz     r9,0(r31)
    10002854:	00 e0 09 7c 	cmpw    r9,r28
    10002858:	b8 00 81 40 	ble     10002910 <intopt_print+0x1e0>
    1000285c:	04 00 3f 81 	lwz     r9,4(r31)
    10002860:	08 00 5f e9 	ld      r10,8(r31)
    10002864:	78 bb e3 7e 	mr      r3,r23
    10002868:	24 1f 95 7b 	rldicr  r21,r28,3,60
    1000286c:	14 e2 29 7d 	add     r9,r9,r28
    10002870:	b4 07 29 7d 	extsw   r9,r9
    10002874:	64 17 29 79 	rldicr  r9,r9,2,61
    10002878:	aa 4a 8a 7c 	lwax    r4,r10,r9
    1000287c:	45 de ff 4b 	bl      100006c0 <00000036.plt_call.printf@@GLIBC_2.17>
    10002880:	18 00 41 e8 	ld      r2,24(r1)
    10002884:	18 00 3f e9 	ld      r9,24(r31)
    10002888:	78 c3 03 7f 	mr      r3,r24
    1000288c:	2a a8 89 7c 	ldx     r4,r9,r21
    10002890:	66 01 24 7c 	mtvsrd  vs1,r4
    10002894:	2d de ff 4b 	bl      100006c0 <00000036.plt_call.printf@@GLIBC_2.17>
    10002898:	18 00 41 e8 	ld      r2,24(r1)
    1000289c:	04 00 3f 81 	lwz     r9,4(r31)
    100028a0:	00 00 09 2c 	cmpwi   r9,0
    100028a4:	9c ff 81 40 	ble     10002840 <intopt_print+0x110>
    100028a8:	00 00 a0 3b 	li      r29,0
    100028ac:	00 00 c0 3a 	li      r22,0
    100028b0:	10 00 5f e9 	ld      r10,16(r31)
    100028b4:	a4 0f a9 7b 	rldicr  r9,r29,1,62
    100028b8:	08 00 1f e9 	ld      r8,8(r31)
    100028bc:	78 db 63 7f 	mr      r3,r27
    100028c0:	01 00 d6 3b 	addi    r30,r22,1
    100028c4:	b4 07 d6 7f 	extsw   r22,r30
    100028c8:	aa ea a8 7c 	lwax    r5,r8,r29
    100028cc:	2a a8 4a 7d 	ldx     r10,r10,r21
    100028d0:	2a 48 8a 7c 	ldx     r4,r10,r9
    100028d4:	66 01 24 7c 	mtvsrd  vs1,r4
    100028d8:	e9 dd ff 4b 	bl      100006c0 <00000036.plt_call.printf@@GLIBC_2.17>
    100028dc:	18 00 41 e8 	ld      r2,24(r1)
    100028e0:	04 00 3f 81 	lwz     r9,4(r31)
    100028e4:	00 f0 09 7c 	cmpw    r9,r30
    100028e8:	58 ff 81 40 	ble     10002840 <intopt_print+0x110>
    100028ec:	78 d3 43 7f 	mr      r3,r26
    100028f0:	04 00 bd 3b 	addi    r29,r29,4
    100028f4:	cd dd ff 4b 	bl      100006c0 <00000036.plt_call.printf@@GLIBC_2.17>
    100028f8:	18 00 41 e8 	ld      r2,24(r1)
    100028fc:	04 00 3f 81 	lwz     r9,4(r31)
    10002900:	00 f0 09 7c 	cmpw    r9,r30
    10002904:	ac ff 81 41 	bgt     100028b0 <intopt_print+0x180>
    10002908:	38 ff ff 4b 	b       10002840 <intopt_print+0x110>
    1000290c:	00 00 42 60 	ori     r2,r2,0
    10002910:	68 00 a1 ea 	ld      r21,104(r1)
    10002914:	70 00 c1 ea 	ld      r22,112(r1)
    10002918:	78 00 e1 ea 	ld      r23,120(r1)
    1000291c:	80 00 01 eb 	ld      r24,128(r1)
    10002920:	88 00 21 eb 	ld      r25,136(r1)
    10002924:	90 00 41 eb 	ld      r26,144(r1)
    10002928:	98 00 61 eb 	ld      r27,152(r1)
    1000292c:	a0 00 81 eb 	ld      r28,160(r1)
    10002930:	c0 00 21 38 	addi    r1,r1,192
    10002934:	10 00 01 e8 	ld      r0,16(r1)
    10002938:	e8 ff a1 eb 	ld      r29,-24(r1)
    1000293c:	f0 ff c1 eb 	ld      r30,-16(r1)
    10002940:	f8 ff e1 eb 	ld      r31,-8(r1)
    10002944:	a6 03 08 7c 	mtlr    r0
    10002948:	20 00 80 4e 	blr
    1000294c:	00 00 00 00 	.long 0x0
    10002950:	00 00 00 01 	.long 0x1000000
    10002954:	80 0b 00 00 	.long 0xb80
    10002958:	00 00 00 60 	nop
    1000295c:	00 00 42 60 	ori     r2,r2,0

0000000010002960 <succ>:
    10002960:	02 10 40 3c 	lis     r2,4098
    10002964:	00 7f 42 38 	addi    r2,r2,32512
    10002968:	a6 02 08 7c 	mflr    r0
    1000296c:	f0 ff c1 fb 	std     r30,-16(r1)
    10002970:	f8 ff e1 fb 	std     r31,-8(r1)
    10002974:	78 2b ab 7c 	mr      r11,r5
    10002978:	78 23 9e 7c 	mr      r30,r4
    1000297c:	78 33 c5 7c 	mr      r5,r6
    10002980:	78 5b 64 7d 	mr      r4,r11
    10002984:	78 3b e6 7c 	mr      r6,r7
    10002988:	78 43 07 7d 	mr      r7,r8
    1000298c:	78 4b 28 7d 	mr      r8,r9
    10002990:	78 53 49 7d 	mr      r9,r10
    10002994:	10 00 01 f8 	std     r0,16(r1)
    10002998:	d1 ff 21 f8 	stdu    r1,-48(r1)
    1000299c:	8d e6 ff 4b 	bl      10001028 <extend+0x8>
    100029a0:	79 1b 7f 7c 	mr.     r31,r3
    100029a4:	48 00 82 41 	beq     100029ec <succ+0x8c>
    100029a8:	06 00 9f e8 	lwa     r4,4(r31)
    100029ac:	48 00 1f e9 	ld      r8,72(r31)
    100029b0:	50 00 ff e8 	ld      r7,80(r31)
    100029b4:	40 00 df e8 	ld      r6,64(r31)
    100029b8:	d0 0c 21 f0 	xxlxor  vs1,vs1,vs1
    100029bc:	02 00 7f e8 	lwa     r3,0(r31)
    100029c0:	38 00 bf e8 	ld      r5,56(r31)
    100029c4:	35 fd ff 4b 	bl      100026f8 <simplex+0x8>
    100029c8:	fe ff 22 3d 	addis   r9,r2,-2
    100029cc:	10 0a 00 fc 	fabs    f0,f1
    100029d0:	c0 b0 89 c9 	lfd     f12,-20288(r9)
    100029d4:	58 00 3f d8 	stfd    f1,88(r31)
    100029d8:	00 60 00 fc 	fcmpu   cr0,f0,f12
    100029dc:	82 0b 43 4c 	cror    eq,so,gt
    100029e0:	30 00 82 40 	bne     10002a10 <succ+0xb0>
    100029e4:	78 fb e3 7f 	mr      r3,r31
    100029e8:	31 ec ff 4b 	bl      10001618 <free_node+0x8>
    100029ec:	30 00 21 38 	addi    r1,r1,48
    100029f0:	10 00 01 e8 	ld      r0,16(r1)
    100029f4:	f0 ff c1 eb 	ld      r30,-16(r1)
    100029f8:	f8 ff e1 eb 	ld      r31,-8(r1)
    100029fc:	a6 03 08 7c 	mtlr    r0
    10002a00:	20 00 80 4e 	blr
    10002a04:	00 00 00 60 	nop
    10002a08:	00 00 00 60 	nop
    10002a0c:	00 00 42 60 	ori     r2,r2,0
    10002a10:	78 fb e3 7f 	mr      r3,r31
    10002a14:	05 ea ff 4b 	bl      10001418 <integer+0x8>
    10002a18:	00 00 23 2c 	cmpdi   r3,0
    10002a1c:	24 00 82 41 	beq     10002a40 <succ+0xe0>
    10002a20:	a8 00 c1 e8 	ld      r6,168(r1)
    10002a24:	a0 00 a1 e8 	ld      r5,160(r1)
    10002a28:	78 f3 c4 7f 	mr      r4,r30
    10002a2c:	78 fb e3 7f 	mr      r3,r31
    10002a30:	39 ee ff 4b 	bl      10001868 <bound+0x8>
    10002a34:	b0 ff ff 4b 	b       100029e4 <succ+0x84>
    10002a38:	00 00 00 60 	nop
    10002a3c:	00 00 42 60 	ori     r2,r2,0
    10002a40:	a0 00 21 e9 	ld      r9,160(r1)
    10002a44:	78 fb e3 7f 	mr      r3,r31
    10002a48:	00 00 29 c8 	lfd     f1,0(r9)
    10002a4c:	7d ea ff 4b 	bl      100014c8 <branch+0x8>
    10002a50:	00 00 23 2c 	cmpdi   r3,0
    10002a54:	90 ff 82 41 	beq     100029e4 <succ+0x84>
    10002a58:	78 fb e4 7f 	mr      r4,r31
    10002a5c:	78 f3 c3 7f 	mr      r3,r30
    10002a60:	c9 f3 ff 4b 	bl      10001e28 <add_last+0x8>
    10002a64:	88 ff ff 4b 	b       100029ec <succ+0x8c>
    10002a68:	00 00 00 00 	.long 0x0
    10002a6c:	00 00 00 01 	.long 0x1000000
    10002a70:	80 02 00 00 	.long 0x280
    10002a74:	00 00 00 60 	nop
    10002a78:	00 00 00 60 	nop
    10002a7c:	00 00 42 60 	ori     r2,r2,0

0000000010002a80 <intopt>:
    10002a80:	02 10 40 3c 	lis     r2,4098
    10002a84:	00 7f 42 38 	addi    r2,r2,32512
    10002a88:	a6 02 08 7c 	mflr    r0
    10002a8c:	f0 ff c1 db 	stfd    f30,-16(r1)
    10002a90:	a0 ff c1 fa 	std     r22,-96(r1)
    10002a94:	78 33 d6 7c 	mr      r22,r6
    10002a98:	a8 ff e1 fa 	std     r23,-88(r1)
    10002a9c:	b0 ff 01 fb 	std     r24,-80(r1)
    10002aa0:	78 2b b7 7c 	mr      r23,r5
    10002aa4:	78 43 18 7d 	mr      r24,r8
    10002aa8:	c8 ff 61 fb 	std     r27,-56(r1)
    10002aac:	d0 ff 81 fb 	std     r28,-48(r1)
    10002ab0:	78 3b fb 7c 	mr      r27,r7
    10002ab4:	78 1b 7c 7c 	mr      r28,r3
    10002ab8:	d8 ff a1 fb 	std     r29,-40(r1)
    10002abc:	e0 ff c1 fb 	std     r30,-32(r1)
    10002ac0:	78 23 9d 7c 	mr      r29,r4
    10002ac4:	e8 ff e1 fb 	std     r31,-24(r1)
    10002ac8:	10 00 01 f8 	std     r0,16(r1)
    10002acc:	11 ff 21 f8 	stdu    r1,-240(r1)
    10002ad0:	69 e3 ff 4b 	bl      10000e38 <initial_node+0x8>
    10002ad4:	78 1b 7f 7c 	mr      r31,r3
    10002ad8:	10 00 60 38 	li      r3,16
    10002adc:	85 dc ff 4b 	bl      10000760 <00000036.plt_call.malloc@@GLIBC_2.17>
    10002ae0:	18 00 41 e8 	ld      r2,24(r1)
    10002ae4:	06 00 9f e8 	lwa     r4,4(r31)
    10002ae8:	00 00 20 39 	li      r9,0
    10002aec:	fe ff 42 3d 	addis   r10,r2,-2
    10002af0:	48 00 1f e9 	ld      r8,72(r31)
    10002af4:	50 00 ff e8 	ld      r7,80(r31)
    10002af8:	40 00 df e8 	ld      r6,64(r31)
    10002afc:	38 00 bf e8 	ld      r5,56(r31)
    10002b00:	d0 0c 21 f0 	xxlxor  vs1,vs1,vs1
    10002b04:	b0 b0 ca cb 	lfd     f30,-20304(r10)
    10002b08:	08 00 23 f9 	std     r9,8(r3)
    10002b0c:	78 1b 7e 7c 	mr      r30,r3
    10002b10:	00 00 e3 fb 	std     r31,0(r3)
    10002b14:	02 00 7f e8 	lwa     r3,0(r31)
    10002b18:	80 00 c1 db 	stfd    f30,128(r1)
    10002b1c:	dd fb ff 4b 	bl      100026f8 <simplex+0x8>
    10002b20:	78 fb e3 7f 	mr      r3,r31
    10002b24:	58 00 3f d8 	stfd    f1,88(r31)
    10002b28:	f1 e8 ff 4b 	bl      10001418 <integer+0x8>
    10002b2c:	58 00 9f c9 	lfd     f12,88(r31)
    10002b30:	00 00 23 2c 	cmpdi   r3,0
    10002b34:	3c 01 82 40 	bne     10002c70 <intopt+0x1f0>
    10002b38:	fe ff 22 3d 	addis   r9,r2,-2
    10002b3c:	10 62 00 fc 	fabs    f0,f12
    10002b40:	c0 b0 69 c9 	lfd     f11,-20288(r9)
    10002b44:	00 58 00 fc 	fcmpu   cr0,f0,f11
    10002b48:	82 0b 43 4c 	cror    eq,so,gt
    10002b4c:	24 01 82 40 	bne     10002c70 <intopt+0x1f0>
    10002b50:	80 00 21 c8 	lfd     f1,128(r1)
    10002b54:	78 fb e3 7f 	mr      r3,r31
    10002b58:	a8 00 21 fb 	std     r25,168(r1)
    10002b5c:	e8 00 e1 db 	stfd    f31,232(r1)
    10002b60:	fe ff 22 3f 	addis   r25,r2,-2
    10002b64:	b0 00 41 fb 	std     r26,176(r1)
    10002b68:	d0 b0 39 3b 	addi    r25,r25,-20272
    10002b6c:	80 00 41 3b 	addi    r26,r1,128
    10002b70:	59 e9 ff 4b 	bl      100014c8 <branch+0x8>
    10002b74:	fe ff 22 3d 	addis   r9,r2,-2
    10002b78:	d8 b0 e9 cb 	lfd     f31,-20264(r9)
    10002b7c:	00 00 42 60 	ori     r2,r2,0
    10002b80:	00 00 fe eb 	ld      r31,0(r30)
    10002b84:	90 f8 20 fc 	fmr     f1,f31
    10002b88:	78 f3 c4 7f 	mr      r4,r30
    10002b8c:	78 db 69 7f 	mr      r9,r27
    10002b90:	78 b3 c8 7e 	mr      r8,r22
    10002b94:	78 bb e7 7e 	mr      r7,r23
    10002b98:	78 eb a6 7f 	mr      r6,r29
    10002b9c:	78 e3 85 7f 	mr      r5,r28
    10002ba0:	0e 00 5f e9 	lwa     r10,12(r31)
    10002ba4:	10 00 5f c8 	lfd     f2,16(r31)
    10002ba8:	78 00 01 fb 	std     r24,120(r1)
    10002bac:	78 fb e3 7f 	mr      r3,r31
    10002bb0:	70 00 41 fb 	std     r26,112(r1)
    10002bb4:	d0 13 40 fc 	frim    f2,f2
    10002bb8:	b1 fd ff 4b 	bl      10002968 <succ+0x8>
    10002bbc:	0e 00 5f e9 	lwa     r10,12(r31)
    10002bc0:	10 00 5f c8 	lfd     f2,16(r31)
    10002bc4:	00 00 39 c8 	lfd     f1,0(r25)
    10002bc8:	78 f3 c4 7f 	mr      r4,r30
    10002bcc:	78 db 69 7f 	mr      r9,r27
    10002bd0:	78 00 01 fb 	std     r24,120(r1)
    10002bd4:	70 00 41 fb 	std     r26,112(r1)
    10002bd8:	78 b3 c8 7e 	mr      r8,r22
    10002bdc:	78 bb e7 7e 	mr      r7,r23
    10002be0:	78 eb a6 7f 	mr      r6,r29
    10002be4:	78 e3 85 7f 	mr      r5,r28
    10002be8:	78 fb e3 7f 	mr      r3,r31
    10002bec:	90 13 40 fc 	frip    f2,f2
    10002bf0:	50 10 40 fc 	fneg    f2,f2
    10002bf4:	75 fd ff 4b 	bl      10002968 <succ+0x8>
    10002bf8:	78 fb e3 7f 	mr      r3,r31
    10002bfc:	1d ea ff 4b 	bl      10001618 <free_node+0x8>
    10002c00:	78 f3 c3 7f 	mr      r3,r30
    10002c04:	08 00 de eb 	ld      r30,8(r30)
    10002c08:	d9 da ff 4b 	bl      100006e0 <00000036.plt_call.free@@GLIBC_2.17>
    10002c0c:	18 00 41 e8 	ld      r2,24(r1)
    10002c10:	00 00 3e 2c 	cmpdi   r30,0
    10002c14:	6c ff 82 40 	bne     10002b80 <intopt+0x100>
    10002c18:	00 00 60 38 	li      r3,0
    10002c1c:	bd ec ff 4b 	bl      100018d8 <free_list+0x8>
    10002c20:	80 00 21 c8 	lfd     f1,128(r1)
    10002c24:	00 f0 01 fc 	fcmpu   cr0,f1,f30
    10002c28:	d8 00 82 41 	beq     10002d00 <intopt+0x280>
    10002c2c:	e8 00 e1 cb 	lfd     f31,232(r1)
    10002c30:	a8 00 21 eb 	ld      r25,168(r1)
    10002c34:	b0 00 41 eb 	ld      r26,176(r1)
    10002c38:	f0 00 21 38 	addi    r1,r1,240
    10002c3c:	10 00 01 e8 	ld      r0,16(r1)
    10002c40:	f0 ff c1 cb 	lfd     f30,-16(r1)
    10002c44:	a0 ff c1 ea 	ld      r22,-96(r1)
    10002c48:	a8 ff e1 ea 	ld      r23,-88(r1)
    10002c4c:	b0 ff 01 eb 	ld      r24,-80(r1)
    10002c50:	c8 ff 61 eb 	ld      r27,-56(r1)
    10002c54:	d0 ff 81 eb 	ld      r28,-48(r1)
    10002c58:	d8 ff a1 eb 	ld      r29,-40(r1)
    10002c5c:	e0 ff c1 eb 	ld      r30,-32(r1)
    10002c60:	e8 ff e1 eb 	ld      r31,-24(r1)
    10002c64:	a6 03 08 7c 	mtlr    r0
    10002c68:	20 00 80 4e 	blr
    10002c6c:	00 00 42 60 	ori     r2,r2,0
    10002c70:	78 fb e3 7f 	mr      r3,r31
    10002c74:	80 00 81 d9 	stfd    f12,128(r1)
    10002c78:	a1 e7 ff 4b 	bl      10001418 <integer+0x8>
    10002c7c:	00 00 23 2c 	cmpdi   r3,0
    10002c80:	d0 fe 82 41 	beq     10002b50 <intopt+0xd0>
    10002c84:	00 00 1d 2c 	cmpwi   r29,0
    10002c88:	38 00 81 40 	ble     10002cc0 <intopt+0x240>
    10002c8c:	ff ff bd 3b 	addi    r29,r29,-1
    10002c90:	48 00 5f e9 	ld      r10,72(r31)
    10002c94:	00 00 20 39 	li      r9,0
    10002c98:	20 00 bd 7b 	clrldi  r29,r29,32
    10002c9c:	01 00 1d 39 	addi    r8,r29,1
    10002ca0:	a6 03 09 7d 	mtctr   r8
    10002ca4:	00 00 00 60 	nop
    10002ca8:	00 00 00 60 	nop
    10002cac:	00 00 42 60 	ori     r2,r2,0
    10002cb0:	ae 4c 0a 7c 	lfdx    f0,r10,r9
    10002cb4:	ae 4d 18 7c 	stfdx   f0,r24,r9
    10002cb8:	08 00 29 39 	addi    r9,r9,8
    10002cbc:	f4 ff 00 42 	bdnz    10002cb0 <intopt+0x230>
    10002cc0:	78 f3 c3 7f 	mr      r3,r30
    10002cc4:	15 ec ff 4b 	bl      100018d8 <free_list+0x8>
    10002cc8:	80 00 21 c8 	lfd     f1,128(r1)
    10002ccc:	f0 00 21 38 	addi    r1,r1,240
    10002cd0:	10 00 01 e8 	ld      r0,16(r1)
    10002cd4:	f0 ff c1 cb 	lfd     f30,-16(r1)
    10002cd8:	a0 ff c1 ea 	ld      r22,-96(r1)
    10002cdc:	a8 ff e1 ea 	ld      r23,-88(r1)
    10002ce0:	b0 ff 01 eb 	ld      r24,-80(r1)
    10002ce4:	c8 ff 61 eb 	ld      r27,-56(r1)
    10002ce8:	d0 ff 81 eb 	ld      r28,-48(r1)
    10002cec:	d8 ff a1 eb 	ld      r29,-40(r1)
    10002cf0:	e0 ff c1 eb 	ld      r30,-32(r1)
    10002cf4:	e8 ff e1 eb 	ld      r31,-24(r1)
    10002cf8:	a6 03 08 7c 	mtlr    r0
    10002cfc:	20 00 80 4e 	blr
    10002d00:	e8 00 e1 cb 	lfd     f31,232(r1)
    10002d04:	a8 00 21 eb 	ld      r25,168(r1)
    10002d08:	b0 00 41 eb 	ld      r26,176(r1)
    10002d0c:	f0 00 21 38 	addi    r1,r1,240
    10002d10:	fe ff 22 3d 	addis   r9,r2,-2
    10002d14:	10 00 01 e8 	ld      r0,16(r1)
    10002d18:	e0 b0 29 c8 	lfd     f1,-20256(r9)
    10002d1c:	f0 ff c1 cb 	lfd     f30,-16(r1)
    10002d20:	a0 ff c1 ea 	ld      r22,-96(r1)
    10002d24:	a8 ff e1 ea 	ld      r23,-88(r1)
    10002d28:	b0 ff 01 eb 	ld      r24,-80(r1)
    10002d2c:	c8 ff 61 eb 	ld      r27,-56(r1)
    10002d30:	d0 ff 81 eb 	ld      r28,-48(r1)
    10002d34:	d8 ff a1 eb 	ld      r29,-40(r1)
    10002d38:	e0 ff c1 eb 	ld      r30,-32(r1)
    10002d3c:	e8 ff e1 eb 	ld      r31,-24(r1)
    10002d40:	a6 03 08 7c 	mtlr    r0
    10002d44:	20 00 80 4e 	blr
    10002d48:	00 00 00 00 	.long 0x0
    10002d4c:	00 00 02 01 	.long 0x1020000
    10002d50:	82 0a 00 00 	.long 0xa82
    10002d54:	00 00 00 60 	nop
    10002d58:	00 00 00 60 	nop
    10002d5c:	00 00 00 60 	nop

0000000010002d60 <__libc_csu_init>:
    10002d60:	02 10 40 3c 	lis     r2,4098
    10002d64:	00 7f 42 38 	addi    r2,r2,32512
    10002d68:	a6 02 08 7c 	mflr    r0
    10002d6c:	d0 ff 41 fb 	std     r26,-48(r1)
    10002d70:	d8 ff 61 fb 	std     r27,-40(r1)
    10002d74:	78 2b ba 7c 	mr      r26,r5
    10002d78:	e0 ff 81 fb 	std     r28,-32(r1)
    10002d7c:	e8 ff a1 fb 	std     r29,-24(r1)
    10002d80:	ff ff a2 3f 	addis   r29,r2,-1
    10002d84:	78 1b 7c 7c 	mr      r28,r3
    10002d88:	f0 ff c1 fb 	std     r30,-16(r1)
    10002d8c:	ff ff c2 3f 	addis   r30,r2,-1
    10002d90:	f8 7d bd 3b 	addi    r29,r29,32248
    10002d94:	f0 7d de 3b 	addi    r30,r30,32240
    10002d98:	78 23 9b 7c 	mr      r27,r4
    10002d9c:	50 e8 be 7f 	subf    r29,r30,r29
    10002da0:	10 00 01 f8 	std     r0,16(r1)
    10002da4:	b1 ff 21 f8 	stdu    r1,-80(r1)
    10002da8:	61 d8 ff 4b 	bl      10000608 <_init+0x8>
    10002dac:	00 00 00 60 	nop
    10002db0:	75 1e bd 7f 	sradi.  r29,r29,3
    10002db4:	50 00 82 41 	beq     10002e04 <__libc_csu_init+0xa4>
    10002db8:	48 00 e1 fb 	std     r31,72(r1)
    10002dbc:	f8 ff de 3b 	addi    r30,r30,-8
    10002dc0:	00 00 e0 3b 	li      r31,0
    10002dc4:	00 00 00 60 	nop
    10002dc8:	00 00 00 60 	nop
    10002dcc:	00 00 42 60 	ori     r2,r2,0
    10002dd0:	09 00 3e e9 	ldu     r9,8(r30)
    10002dd4:	78 d3 45 7f 	mr      r5,r26
    10002dd8:	18 00 41 f8 	std     r2,24(r1)
    10002ddc:	78 db 64 7f 	mr      r4,r27
    10002de0:	78 e3 83 7f 	mr      r3,r28
    10002de4:	01 00 ff 3b 	addi    r31,r31,1
    10002de8:	a6 03 29 7d 	mtctr   r9
    10002dec:	78 4b 2c 7d 	mr      r12,r9
    10002df0:	21 04 80 4e 	bctrl
    10002df4:	18 00 41 e8 	ld      r2,24(r1)
    10002df8:	40 f8 bd 7f 	cmpld   cr7,r29,r31
    10002dfc:	d4 ff 9e 40 	bne     cr7,10002dd0 <__libc_csu_init+0x70>
    10002e00:	48 00 e1 eb 	ld      r31,72(r1)
    10002e04:	50 00 21 38 	addi    r1,r1,80
    10002e08:	10 00 01 e8 	ld      r0,16(r1)
    10002e0c:	d0 ff 41 eb 	ld      r26,-48(r1)
    10002e10:	d8 ff 61 eb 	ld      r27,-40(r1)
    10002e14:	e0 ff 81 eb 	ld      r28,-32(r1)
    10002e18:	e8 ff a1 eb 	ld      r29,-24(r1)
    10002e1c:	f0 ff c1 eb 	ld      r30,-16(r1)
    10002e20:	a6 03 08 7c 	mtlr    r0
    10002e24:	20 00 80 4e 	blr
    10002e28:	00 00 00 00 	.long 0x0
    10002e2c:	00 00 00 01 	.long 0x1000000
    10002e30:	80 06 00 00 	.long 0x680
    10002e34:	00 00 00 60 	nop
    10002e38:	00 00 00 60 	nop
    10002e3c:	00 00 42 60 	ori     r2,r2,0

0000000010002e40 <__libc_csu_fini>:
    10002e40:	20 00 80 4e 	blr
	...
    10002e50:	a0 d1 01 00 	.long 0x1d1a0
    10002e54:	00 00 00 00 	.long 0x0

0000000010002e58 <__glink_PLTresolve>:
    10002e58:	a6 02 08 7c 	mflr    r0
    10002e5c:	05 00 9f 42 	bcl     20,4*cr7+so,10002e60 <__glink_PLTresolve+0x8>
    10002e60:	a6 02 68 7d 	mflr    r11
    10002e64:	18 00 41 f8 	std     r2,24(r1)
    10002e68:	f0 ff 4b e8 	ld      r2,-16(r11)
    10002e6c:	a6 03 08 7c 	mtlr    r0
    10002e70:	50 60 8b 7d 	subf    r12,r11,r12
    10002e74:	14 5a 62 7d 	add     r11,r2,r11
    10002e78:	d0 ff 0c 38 	addi    r0,r12,-48
    10002e7c:	00 00 8b e9 	ld      r12,0(r11)
    10002e80:	82 f0 00 78 	rldicl  r0,r0,62,2
    10002e84:	a6 03 89 7d 	mtctr   r12
    10002e88:	08 00 6b e9 	ld      r11,8(r11)
    10002e8c:	20 04 80 4e 	bctr

0000000010002e90 <memcpy@plt>:
    10002e90:	c8 ff ff 4b 	b       10002e58 <__glink_PLTresolve>

0000000010002e94 <memmove@plt>:
    10002e94:	c4 ff ff 4b 	b       10002e58 <__glink_PLTresolve>

0000000010002e98 <malloc@plt>:
    10002e98:	c0 ff ff 4b 	b       10002e58 <__glink_PLTresolve>

0000000010002e9c <__libc_start_main@plt>:
    10002e9c:	bc ff ff 4b 	b       10002e58 <__glink_PLTresolve>

0000000010002ea0 <memset@plt>:
    10002ea0:	b8 ff ff 4b 	b       10002e58 <__glink_PLTresolve>

0000000010002ea4 <calloc@plt>:
    10002ea4:	b4 ff ff 4b 	b       10002e58 <__glink_PLTresolve>

0000000010002ea8 <__gmon_start__@plt>:
    10002ea8:	b0 ff ff 4b 	b       10002e58 <__glink_PLTresolve>

0000000010002eac <puts@plt>:
    10002eac:	ac ff ff 4b 	b       10002e58 <__glink_PLTresolve>

0000000010002eb0 <free@plt>:
    10002eb0:	a8 ff ff 4b 	b       10002e58 <__glink_PLTresolve>

0000000010002eb4 <__isoc99_scanf@plt>:
    10002eb4:	a4 ff ff 4b 	b       10002e58 <__glink_PLTresolve>

0000000010002eb8 <printf@plt>:
    10002eb8:	a0 ff ff 4b 	b       10002e58 <__glink_PLTresolve>

Disassembly of section .fini:

0000000010002ebc <_fini>:
    10002ebc:	02 10 40 3c 	lis     r2,4098
    10002ec0:	00 7f 42 38 	addi    r2,r2,32512
    10002ec4:	a6 02 08 7c 	mflr    r0
    10002ec8:	10 00 01 f8 	std     r0,16(r1)
    10002ecc:	a1 ff 21 f8 	stdu    r1,-96(r1)
    10002ed0:	60 00 21 38 	addi    r1,r1,96
    10002ed4:	10 00 01 e8 	ld      r0,16(r1)
    10002ed8:	a6 03 08 7c 	mtlr    r0
    10002edc:	20 00 80 4e 	blr
